(lp0
(dp1
S'layout'
p2
(dp3
S'title'
p4
S'Vehicle Collisions'
p5
ssS'data'
p6
cplotly.graph_objs._figure
Figure
p7
((dp8
S'_grid_ref'
p9
(lp10
(lp11
(ccopy_reg
_reconstructor
p12
(cplotly.subplots
SubplotRef
p13
c__builtin__
tuple
p14
(Vmapbox
p15
(Vmapbox
p16
tp17
(dp18
Vsubplot
p19
g16
stp20
tp21
Rp22
tp23
aasg2
(dp24
S'height'
p25
I600
sS'template'
p26
(dp27
g2
(dp28
Vshapedefaults
p29
(dp30
Vline
p31
(dp32
Vcolor
p33
V#2a3f5f
p34
sssVpolar
p35
(dp36
Vradialaxis
p37
(dp38
Vticks
p39
V
p40
sVgridcolor
p41
Vwhite
p42
sVlinecolor
p43
Vwhite
p44
ssVbgcolor
p45
V#E5ECF6
p46
sVangularaxis
p47
(dp48
Vticks
p49
g40
sVgridcolor
p50
Vwhite
p51
sVlinecolor
p52
Vwhite
p53
sssVcolorway
p54
(lp55
V#636efa
p56
aV#EF553B
p57
aV#00cc96
p58
aV#ab63fa
p59
aV#FFA15A
p60
aV#19d3f3
p61
aV#FF6692
p62
aV#B6E880
p63
aV#FF97FF
p64
aV#FECB52
p65
asVxaxis
p66
(dp67
Vautomargin
p68
I01
sVtitle
p69
(dp70
Vstandoff
p71
I15
ssVzerolinewidth
p72
I2
sVticks
p73
g40
sVzerolinecolor
p74
Vwhite
p75
sVgridcolor
p76
Vwhite
p77
sVlinecolor
p78
Vwhite
p79
ssVcolorscale
p80
(dp81
Vdiverging
p82
(lp83
(lp84
I0
aV#8e0152
p85
aa(lp86
F0.1
aV#c51b7d
p87
aa(lp88
F0.2
aV#de77ae
p89
aa(lp90
F0.3
aV#f1b6da
p91
aa(lp92
F0.4
aV#fde0ef
p93
aa(lp94
F0.5
aV#f7f7f7
p95
aa(lp96
F0.6
aV#e6f5d0
p97
aa(lp98
F0.7
aV#b8e186
p99
aa(lp100
F0.8
aV#7fbc41
p101
aa(lp102
F0.9
aV#4d9221
p103
aa(lp104
I1
aV#276419
p105
aasVsequential
p106
(lp107
(lp108
F0.0
aV#0d0887
p109
aa(lp110
F0.1111111111111111
aV#46039f
p111
aa(lp112
F0.2222222222222222
aV#7201a8
p113
aa(lp114
F0.3333333333333333
aV#9c179e
p115
aa(lp116
F0.4444444444444444
aV#bd3786
p117
aa(lp118
F0.5555555555555556
aV#d8576b
p119
aa(lp120
F0.6666666666666666
aV#ed7953
p121
aa(lp122
F0.7777777777777778
aV#fb9f3a
p123
aa(lp124
F0.8888888888888888
aV#fdca26
p125
aa(lp126
F1.0
aV#f0f921
p127
aasVsequentialminus
p128
(lp129
(lp130
F0.0
aV#0d0887
p131
aa(lp132
F0.1111111111111111
aV#46039f
p133
aa(lp134
F0.2222222222222222
aV#7201a8
p135
aa(lp136
F0.3333333333333333
aV#9c179e
p137
aa(lp138
F0.4444444444444444
aV#bd3786
p139
aa(lp140
F0.5555555555555556
aV#d8576b
p141
aa(lp142
F0.6666666666666666
aV#ed7953
p143
aa(lp144
F0.7777777777777778
aV#fb9f3a
p145
aa(lp146
F0.8888888888888888
aV#fdca26
p147
aa(lp148
F1.0
aV#f0f921
p149
aassVpaper_bgcolor
p150
Vwhite
p151
sVplot_bgcolor
p152
V#E5ECF6
p153
sVyaxis
p154
(dp155
Vautomargin
p156
I01
sVtitle
p157
(dp158
Vstandoff
p159
I15
ssVzerolinewidth
p160
I2
sVticks
p161
g40
sVzerolinecolor
p162
Vwhite
p163
sVgridcolor
p164
Vwhite
p165
sVlinecolor
p166
Vwhite
p167
ssVscene
p168
(dp169
Vzaxis
p170
(dp171
Vbackgroundcolor
p172
V#E5ECF6
p173
sVticks
p174
g40
sVshowbackground
p175
I01
sVgridwidth
p176
I2
sVzerolinecolor
p177
Vwhite
p178
sVgridcolor
p179
Vwhite
p180
sVlinecolor
p181
Vwhite
p182
ssVxaxis
p183
(dp184
Vbackgroundcolor
p185
V#E5ECF6
p186
sVticks
p187
g40
sVshowbackground
p188
I01
sVgridwidth
p189
I2
sVzerolinecolor
p190
Vwhite
p191
sVgridcolor
p192
Vwhite
p193
sVlinecolor
p194
Vwhite
p195
ssVyaxis
p196
(dp197
Vbackgroundcolor
p198
V#E5ECF6
p199
sVticks
p200
g40
sVshowbackground
p201
I01
sVgridwidth
p202
I2
sVzerolinecolor
p203
Vwhite
p204
sVgridcolor
p205
Vwhite
p206
sVlinecolor
p207
Vwhite
p208
sssVannotationdefaults
p209
(dp210
Varrowwidth
p211
I1
sVarrowhead
p212
I0
sVarrowcolor
p213
V#2a3f5f
p214
ssVhoverlabel
p215
(dp216
Valign
p217
Vleft
p218
ssVternary
p219
(dp220
Vbgcolor
p221
V#E5ECF6
p222
sVbaxis
p223
(dp224
Vticks
p225
g40
sVgridcolor
p226
Vwhite
p227
sVlinecolor
p228
Vwhite
p229
ssVcaxis
p230
(dp231
Vticks
p232
g40
sVgridcolor
p233
Vwhite
p234
sVlinecolor
p235
Vwhite
p236
ssVaaxis
p237
(dp238
Vticks
p239
g40
sVgridcolor
p240
Vwhite
p241
sVlinecolor
p242
Vwhite
p243
sssVmapbox
p244
(dp245
Vstyle
p246
Vlight
p247
ssVtitle
p248
(dp249
Vx
p250
F0.05
ssVhovermode
p251
Vclosest
p252
sVfont
p253
(dp254
Vcolor
p255
V#2a3f5f
p256
ssVgeo
p257
(dp258
Vshowland
p259
I01
sVlandcolor
p260
V#E5ECF6
p261
sVshowlakes
p262
I01
sVbgcolor
p263
Vwhite
p264
sVsubunitcolor
p265
Vwhite
p266
sVlakecolor
p267
Vwhite
p268
ssVcoloraxis
p269
(dp270
Vcolorbar
p271
(dp272
Voutlinewidth
p273
I0
sVticks
p274
g40
ssssg6
(dp275
Vmesh3d
p276
(lp277
(dp278
Vcolorbar
p279
(dp280
Voutlinewidth
p281
I0
sVticks
p282
g40
ssVtype
p283
Vmesh3d
p284
sasVscattercarpet
p285
(lp286
(dp287
Vmarker
p288
(dp289
Vcolorbar
p290
(dp291
Voutlinewidth
p292
I0
sVticks
p293
g40
sssVtype
p294
Vscattercarpet
p295
sasVpie
p296
(lp297
(dp298
Vautomargin
p299
I01
sVtype
p300
Vpie
p301
sasVsurface
p302
(lp303
(dp304
Vcolorbar
p305
(dp306
Voutlinewidth
p307
I0
sVticks
p308
g40
ssVtype
p309
Vsurface
p310
sVcolorscale
p311
(lp312
(lp313
F0.0
aV#0d0887
p314
aa(lp315
F0.1111111111111111
aV#46039f
p316
aa(lp317
F0.2222222222222222
aV#7201a8
p318
aa(lp319
F0.3333333333333333
aV#9c179e
p320
aa(lp321
F0.4444444444444444
aV#bd3786
p322
aa(lp323
F0.5555555555555556
aV#d8576b
p324
aa(lp325
F0.6666666666666666
aV#ed7953
p326
aa(lp327
F0.7777777777777778
aV#fb9f3a
p328
aa(lp329
F0.8888888888888888
aV#fdca26
p330
aa(lp331
F1.0
aV#f0f921
p332
aasasVtable
p333
(lp334
(dp335
Vheader
p336
(dp337
Vline
p338
(dp339
Vcolor
p340
Vwhite
p341
ssVfill
p342
(dp343
Vcolor
p344
V#C8D4E3
p345
sssVcells
p346
(dp347
Vline
p348
(dp349
Vcolor
p350
Vwhite
p351
ssVfill
p352
(dp353
Vcolor
p354
V#EBF0F8
p355
sssVtype
p356
Vtable
p357
sasVscatterpolargl
p358
(lp359
(dp360
Vmarker
p361
(dp362
Vcolorbar
p363
(dp364
Voutlinewidth
p365
I0
sVticks
p366
g40
sssVtype
p367
Vscatterpolargl
p368
sasVcontour
p369
(lp370
(dp371
Vcolorbar
p372
(dp373
Voutlinewidth
p374
I0
sVticks
p375
g40
ssVtype
p376
Vcontour
p377
sVcolorscale
p378
(lp379
(lp380
F0.0
aV#0d0887
p381
aa(lp382
F0.1111111111111111
aV#46039f
p383
aa(lp384
F0.2222222222222222
aV#7201a8
p385
aa(lp386
F0.3333333333333333
aV#9c179e
p387
aa(lp388
F0.4444444444444444
aV#bd3786
p389
aa(lp390
F0.5555555555555556
aV#d8576b
p391
aa(lp392
F0.6666666666666666
aV#ed7953
p393
aa(lp394
F0.7777777777777778
aV#fb9f3a
p395
aa(lp396
F0.8888888888888888
aV#fdca26
p397
aa(lp398
F1.0
aV#f0f921
p399
aasasVcarpet
p400
(lp401
(dp402
Vtype
p403
Vcarpet
p404
sVbaxis
p405
(dp406
Vminorgridcolor
p407
Vwhite
p408
sVgridcolor
p409
Vwhite
p410
sVlinecolor
p411
Vwhite
p412
sVendlinecolor
p413
V#2a3f5f
p414
sVstartlinecolor
p415
V#2a3f5f
p416
ssVaaxis
p417
(dp418
Vminorgridcolor
p419
Vwhite
p420
sVgridcolor
p421
Vwhite
p422
sVlinecolor
p423
Vwhite
p424
sVendlinecolor
p425
V#2a3f5f
p426
sVstartlinecolor
p427
V#2a3f5f
p428
ssasVcontourcarpet
p429
(lp430
(dp431
Vcolorbar
p432
(dp433
Voutlinewidth
p434
I0
sVticks
p435
g40
ssVtype
p436
Vcontourcarpet
p437
sasVheatmap
p438
(lp439
(dp440
Vcolorbar
p441
(dp442
Voutlinewidth
p443
I0
sVticks
p444
g40
ssVtype
p445
Vheatmap
p446
sVcolorscale
p447
(lp448
(lp449
F0.0
aV#0d0887
p450
aa(lp451
F0.1111111111111111
aV#46039f
p452
aa(lp453
F0.2222222222222222
aV#7201a8
p454
aa(lp455
F0.3333333333333333
aV#9c179e
p456
aa(lp457
F0.4444444444444444
aV#bd3786
p458
aa(lp459
F0.5555555555555556
aV#d8576b
p460
aa(lp461
F0.6666666666666666
aV#ed7953
p462
aa(lp463
F0.7777777777777778
aV#fb9f3a
p464
aa(lp465
F0.8888888888888888
aV#fdca26
p466
aa(lp467
F1.0
aV#f0f921
p468
aasasVscattermapbox
p469
(lp470
(dp471
Vmarker
p472
(dp473
Vcolorbar
p474
(dp475
Voutlinewidth
p476
I0
sVticks
p477
g40
sssVtype
p478
Vscattermapbox
p479
sasVscatter3d
p480
(lp481
(dp482
Vmarker
p483
(dp484
Vcolorbar
p485
(dp486
Voutlinewidth
p487
I0
sVticks
p488
g40
sssVline
p489
(dp490
Vcolorbar
p491
(dp492
Voutlinewidth
p493
I0
sVticks
p494
g40
sssVtype
p495
Vscatter3d
p496
sasVscattergl
p497
(lp498
(dp499
Vmarker
p500
(dp501
Vcolorbar
p502
(dp503
Voutlinewidth
p504
I0
sVticks
p505
g40
sssVtype
p506
Vscattergl
p507
sasVscatterternary
p508
(lp509
(dp510
Vmarker
p511
(dp512
Vcolorbar
p513
(dp514
Voutlinewidth
p515
I0
sVticks
p516
g40
sssVtype
p517
Vscatterternary
p518
sasVhistogram2d
p519
(lp520
(dp521
Vcolorbar
p522
(dp523
Voutlinewidth
p524
I0
sVticks
p525
g40
ssVtype
p526
Vhistogram2d
p527
sVcolorscale
p528
(lp529
(lp530
F0.0
aV#0d0887
p531
aa(lp532
F0.1111111111111111
aV#46039f
p533
aa(lp534
F0.2222222222222222
aV#7201a8
p535
aa(lp536
F0.3333333333333333
aV#9c179e
p537
aa(lp538
F0.4444444444444444
aV#bd3786
p539
aa(lp540
F0.5555555555555556
aV#d8576b
p541
aa(lp542
F0.6666666666666666
aV#ed7953
p543
aa(lp544
F0.7777777777777778
aV#fb9f3a
p545
aa(lp546
F0.8888888888888888
aV#fdca26
p547
aa(lp548
F1.0
aV#f0f921
p549
aasasVheatmapgl
p550
(lp551
(dp552
Vcolorbar
p553
(dp554
Voutlinewidth
p555
I0
sVticks
p556
g40
ssVtype
p557
Vheatmapgl
p558
sVcolorscale
p559
(lp560
(lp561
F0.0
aV#0d0887
p562
aa(lp563
F0.1111111111111111
aV#46039f
p564
aa(lp565
F0.2222222222222222
aV#7201a8
p566
aa(lp567
F0.3333333333333333
aV#9c179e
p568
aa(lp569
F0.4444444444444444
aV#bd3786
p570
aa(lp571
F0.5555555555555556
aV#d8576b
p572
aa(lp573
F0.6666666666666666
aV#ed7953
p574
aa(lp575
F0.7777777777777778
aV#fb9f3a
p576
aa(lp577
F0.8888888888888888
aV#fdca26
p578
aa(lp579
F1.0
aV#f0f921
p580
aasasVscatterpolar
p581
(lp582
(dp583
Vmarker
p584
(dp585
Vcolorbar
p586
(dp587
Voutlinewidth
p588
I0
sVticks
p589
g40
sssVtype
p590
Vscatterpolar
p591
sasVhistogram
p592
(lp593
(dp594
Vmarker
p595
(dp596
Vcolorbar
p597
(dp598
Voutlinewidth
p599
I0
sVticks
p600
g40
sssVtype
p601
Vhistogram
p602
sasVscattergeo
p603
(lp604
(dp605
Vmarker
p606
(dp607
Vcolorbar
p608
(dp609
Voutlinewidth
p610
I0
sVticks
p611
g40
sssVtype
p612
Vscattergeo
p613
sasVbar
p614
(lp615
(dp616
Vmarker
p617
(dp618
Vline
p619
(dp620
Vcolor
p621
V#E5ECF6
p622
sVwidth
p623
F0.5
sssVtype
p624
Vbar
p625
sVerror_x
p626
(dp627
Vcolor
p628
V#2a3f5f
p629
ssVerror_y
p630
(dp631
Vcolor
p632
V#2a3f5f
p633
ssasVchoropleth
p634
(lp635
(dp636
Vcolorbar
p637
(dp638
Voutlinewidth
p639
I0
sVticks
p640
g40
ssVtype
p641
Vchoropleth
p642
sasVparcoords
p643
(lp644
(dp645
Vline
p646
(dp647
Vcolorbar
p648
(dp649
Voutlinewidth
p650
I0
sVticks
p651
g40
sssVtype
p652
Vparcoords
p653
sasVbarpolar
p654
(lp655
(dp656
Vmarker
p657
(dp658
Vline
p659
(dp660
Vcolor
p661
V#E5ECF6
p662
sVwidth
p663
F0.5
sssVtype
p664
Vbarpolar
p665
sasVhistogram2dcontour
p666
(lp667
(dp668
Vcolorbar
p669
(dp670
Voutlinewidth
p671
I0
sVticks
p672
g40
ssVtype
p673
Vhistogram2dcontour
p674
sVcolorscale
p675
(lp676
(lp677
F0.0
aV#0d0887
p678
aa(lp679
F0.1111111111111111
aV#46039f
p680
aa(lp681
F0.2222222222222222
aV#7201a8
p682
aa(lp683
F0.3333333333333333
aV#9c179e
p684
aa(lp685
F0.4444444444444444
aV#bd3786
p686
aa(lp687
F0.5555555555555556
aV#d8576b
p688
aa(lp689
F0.6666666666666666
aV#ed7953
p690
aa(lp691
F0.7777777777777778
aV#fb9f3a
p692
aa(lp693
F0.8888888888888888
aV#fdca26
p694
aa(lp695
F1.0
aV#f0f921
p696
aasasVscatter
p697
(lp698
(dp699
Vmarker
p700
(dp701
Vcolorbar
p702
(dp703
Voutlinewidth
p704
I0
sVticks
p705
g40
sssVtype
p706
Vscatter
p707
sasssS'mapbox'
p708
(dp709
S'domain'
p710
(dp711
S'y'
p712
(lp713
F0.0
aF1.0
asS'x'
p714
(lp715
F0.0
aF1.0
assS'zoom'
p716
F8.9
sS'style'
p717
S'open-street-map'
p718
sS'center'
p719
(dp720
S'lat'
p721
F40.71
sS'lon'
p722
I-74
sssS'margin'
p723
(dp724
S't'
p725
I60
ssS'legend'
p726
(dp727
S'tracegroupgap'
p728
I0
ssS'coloraxis'
p729
(dp730
S'colorscale'
p731
(lp732
(lp733
F0.0
ag109
aa(lp734
F0.1111111111111111
ag111
aa(lp735
F0.2222222222222222
ag113
aa(lp736
F0.3333333333333333
ag115
aa(lp737
F0.4444444444444444
ag117
aa(lp738
F0.5555555555555556
ag119
aa(lp739
F0.6666666666666666
ag121
aa(lp740
F0.7777777777777778
ag123
aa(lp741
F0.8888888888888888
ag125
aa(lp742
F1.0
ag127
aasssg6
(lp743
(dp744
S'subplot'
p745
g16
sS'hovertemplate'
p746
S'latitude=%{lat}<br>longitude=%{lon}<extra></extra>'
p747
sS'name'
p748
S''
p749
sS'lon'
p750
cnumpy.core.multiarray
_reconstruct
p751
(cnumpy
ndarray
p752
(I0
tp753
S'b'
p754
tp755
Rp756
(I1
(I910
tp757
cnumpy
dtype
p758
(S'O8'
p759
I0
I1
tp760
Rp761
(I3
S'|'
p762
NNNI-1
I-1
I63
tp763
bI00
(lp764
V-73.7901840
p765
aV-73.9510960
p766
aV-73.9938350
p767
aV-73.8666100
p768
aV-73.9754000
p769
aV-73.9463900
p770
aV-73.7806300
p771
aV-73.9167900
p772
aV-73.7653600
p773
aV-73.9276300
p774
aV-73.9856800
p775
aV-73.9574700
p776
aV-73.9602050
p777
aV-73.8259000
p778
aV-73.8142200
p779
aV-73.9957600
p780
aV-73.9665450
p781
aV-73.8873440
p782
aV-74.2162500
p783
aV-73.9258500
p784
aV-73.9723400
p785
aV-73.9913600
p786
aV-73.9973140
p787
aV-73.9761050
p788
aV-73.9553700
p789
aV-73.9685000
p790
aV-73.9238600
p791
aV-73.9023900
p792
aV-73.9214860
p793
aV-73.9657900
p794
aV-73.9048900
p795
aV-73.7650600
p796
aV-73.9718100
p797
aV-73.7752700
p798
aV-73.7916640
p799
aV-73.9913560
p800
aV-73.9101940
p801
aV-73.9482800
p802
aV-74.0197200
p803
aV-73.9383800
p804
aV-74.1941150
p805
aV-73.9614400
p806
aV-73.9582700
p807
aV-73.8752440
p808
aV-73.7569300
p809
aV-73.8479400
p810
aV-73.9808500
p811
aV-73.8417360
p812
aV-73.9601200
p813
aV-73.9537300
p814
aV-73.7245200
p815
aV-73.9646450
p816
aV-74.0161300
p817
aV-73.9526900
p818
aV-73.9817660
p819
aV-73.9292300
p820
aV-74.0000800
p821
aV-73.9634500
p822
aV-73.7671360
p823
aV-73.8654700
p824
aV-73.8423100
p825
aV-73.8725100
p826
aV-73.7857400
p827
aV-73.9245900
p828
aV-73.9312740
p829
aV-73.9225540
p830
aV-74.1097700
p831
aV-73.9368400
p832
aV-73.7581940
p833
aV-73.9925400
p834
aV-73.9605800
p835
aV-73.8775900
p836
aV-73.7571100
p837
aV-73.8665800
p838
aV-73.9485200
p839
aV-73.8649750
p840
aV-73.9231100
p841
aV-74.0319900
p842
aV-73.9335300
p843
aV-73.7635350
p844
aV-74.0007100
p845
aV-73.9408200
p846
aV-73.7806300
p847
aV-73.8844300
p848
aV-73.8970800
p849
aV-73.8071600
p850
aV-73.9831000
p851
aV-73.9987260
p852
aV-74.0114700
p853
aV-73.9061600
p854
aV-73.8983150
p855
aV-73.9067400
p856
aV-73.9076460
p857
aV-73.8222500
p858
aV-73.8546140
p859
aV-73.8912800
p860
aV-74.1968840
p861
aV-74.1572340
p862
aV-73.9158600
p863
aV-74.0017000
p864
aV-73.7894900
p865
aV-73.8966700
p866
aV-73.7891850
p867
aV-73.8271560
p868
aV-73.9800400
p869
aV-73.8408660
p870
aV-73.9730200
p871
aV-73.8266900
p872
aV-73.9804000
p873
aV-73.8965760
p874
aV-73.9338500
p875
aV-74.0030750
p876
aV-73.9509900
p877
aV-73.9386600
p878
aV-73.8996200
p879
aV-73.9401300
p880
aV-73.9839860
p881
aV-73.9061900
p882
aV-74.0059100
p883
aV-73.7860100
p884
aV-73.9845300
p885
aV-73.9308900
p886
aV-73.9586940
p887
aV-73.9321500
p888
aV-73.9936600
p889
aV-73.9277650
p890
aV-73.8282000
p891
aV-73.9582750
p892
aV-73.8207900
p893
aV-73.7518500
p894
aV-73.7243900
p895
aV-73.9795150
p896
aV-73.9811300
p897
aV-73.8571500
p898
aV-73.9044000
p899
aV-73.9460600
p900
aV-73.9781300
p901
aV-73.9742500
p902
aV-73.8975200
p903
aV-73.8808200
p904
aV-73.8395160
p905
aV-73.7298800
p906
aV-73.8913200
p907
aV-73.9960700
p908
aV-73.8717700
p909
aV-73.9761700
p910
aV-73.9829940
p911
aV-73.9763400
p912
aV-73.9904600
p913
aV-73.7402900
p914
aV-73.9500200
p915
aV-73.8504100
p916
aV-73.9017700
p917
aV-73.9511800
p918
aV-73.9309100
p919
aV-73.8922700
p920
aV-73.9740750
p921
aV-73.8574100
p922
aV-73.8282400
p923
aV-73.9604950
p924
aV-73.7741100
p925
aV-73.8834700
p926
aV-73.8973800
p927
aV-73.8056700
p928
aV-73.9644600
p929
aV-73.9606550
p930
aV-73.9861500
p931
aV-73.8719800
p932
aV-73.7417300
p933
aV-73.9176940
p934
aV-74.0175800
p935
aV-73.8761100
p936
aV-73.9129640
p937
aV-73.9222100
p938
aV-74.1641600
p939
aV-73.9195500
p940
aV-73.7812900
p941
aV-73.8921360
p942
aV-73.8556100
p943
aV-73.9843140
p944
aV-73.9778300
p945
aV-73.8438800
p946
aV-74.0901100
p947
aV-73.8851700
p948
aV-73.7511300
p949
aV-73.8967200
p950
aV-73.9491300
p951
aV-73.9949400
p952
aV-74.1610100
p953
aV-73.9318800
p954
aV-73.9924850
p955
aV-73.8974200
p956
aV-73.9377060
p957
aV-73.9947200
p958
aV-73.9643400
p959
aV-74.0218900
p960
aV-73.7844900
p961
aV-73.9225100
p962
aV-73.8736000
p963
aV-73.7083300
p964
aV-73.9694200
p965
aV-73.7371100
p966
aV-73.9358700
p967
aV-73.9801200
p968
aV-73.9317000
p969
aV-73.8222600
p970
aV-73.8172450
p971
aV-73.8712800
p972
aV-73.9504600
p973
aV-73.9915540
p974
aV-73.8827700
p975
aV-73.8110050
p976
aV-73.9529200
p977
aV-73.9480440
p978
aV-73.9897300
p979
aV-74.0042800
p980
aV-73.9170700
p981
aV-73.9959400
p982
aV-73.9347800
p983
aV-74.0030300
p984
aV-73.9375840
p985
aV-73.9310400
p986
aV-73.9534760
p987
aV-73.8972500
p988
aV-73.9564600
p989
aV-73.8518200
p990
aV-73.9524900
p991
aV-73.8216700
p992
aV-73.8026050
p993
aV-73.8063200
p994
aV-73.9170000
p995
aV-73.8973700
p996
aV-73.8698960
p997
aV-73.8098900
p998
aV-73.7736600
p999
aV-73.9245800
p1000
aV-73.9312200
p1001
aV-73.8431550
p1002
aV-73.9977800
p1003
aV-73.8892100
p1004
aV-73.9177600
p1005
aV-73.9188900
p1006
aV-73.7671360
p1007
aV-73.8404800
p1008
aV-73.7247400
p1009
aV-73.9308900
p1010
aV-73.9708600
p1011
aV-73.9440100
p1012
aV-73.8597640
p1013
aV-73.8943940
p1014
aV-73.9657400
p1015
aV-74.0065000
p1016
aV-73.8580700
p1017
aV-73.9335500
p1018
aV-73.9515200
p1019
aV-73.8410300
p1020
aV-73.9265800
p1021
aV-73.8581900
p1022
aV-73.9454900
p1023
aV-73.9862800
p1024
aV-73.8906300
p1025
aV-73.9105900
p1026
aV-73.9002760
p1027
aV-73.8799800
p1028
aV-73.8189100
p1029
aV-73.9644600
p1030
aV-73.9480200
p1031
aV-74.1444500
p1032
aV-73.9353900
p1033
aV-74.2098400
p1034
aV-73.9493100
p1035
aV-73.8832300
p1036
aV-74.0199700
p1037
aV-73.9746550
p1038
aV-73.9292450
p1039
aV-73.8222600
p1040
aV-73.9137040
p1041
aV-73.9253700
p1042
aV-73.8422300
p1043
aV-73.8966300
p1044
aV-74.0815050
p1045
aV-73.8429600
p1046
aV-73.8815160
p1047
aV-73.9297700
p1048
aV-73.8389900
p1049
aV-73.9334800
p1050
aV-73.9319800
p1051
aV-73.7667600
p1052
aV-73.8738860
p1053
aV-73.9721500
p1054
aV-73.8777850
p1055
aV-73.9301150
p1056
aV-73.8122250
p1057
aV-73.9550900
p1058
aV-73.9902900
p1059
aV-73.8618600
p1060
aV-73.9588240
p1061
aV-74.0885000
p1062
aV-73.8706200
p1063
aV-73.8706400
p1064
aV-73.7638100
p1065
aV-73.9042200
p1066
aV-73.9847000
p1067
aV-73.9239900
p1068
aV-73.8989900
p1069
aV-73.8966700
p1070
aV-73.9582100
p1071
aV-73.9598800
p1072
aV-73.7725700
p1073
aV-73.9420700
p1074
aV-73.9493500
p1075
aV-73.8263100
p1076
aV-73.9418950
p1077
aV-73.8662000
p1078
aV-73.9172740
p1079
aV-73.8710400
p1080
aV-73.8968600
p1081
aV-73.9056600
p1082
aV-73.9628700
p1083
aV-73.8800300
p1084
aV-73.9813300
p1085
aV-73.7848600
p1086
aV-73.9873000
p1087
aV-73.7586500
p1088
aV-73.9504400
p1089
aV-73.9279300
p1090
aV-73.7501100
p1091
aV-73.9949800
p1092
aV-73.8231300
p1093
aV-73.8545000
p1094
aV-74.0022300
p1095
aV-73.8549200
p1096
aV-73.8509200
p1097
aV-73.9547100
p1098
aV-73.9977950
p1099
aV-73.7607100
p1100
aV-74.0044250
p1101
aV-73.8873200
p1102
aV-73.9844740
p1103
aV-74.1699200
p1104
aV-73.9964140
p1105
aV-73.9354100
p1106
aV-73.9000550
p1107
aV-73.9872100
p1108
aV-73.9306000
p1109
aV-73.9210300
p1110
aV-73.9306000
p1111
aV-74.0023350
p1112
aV-73.9110600
p1113
aV-73.8928150
p1114
aV-73.9817800
p1115
aV-73.9537700
p1116
aV-73.9937440
p1117
aV-73.8934560
p1118
aV-73.9432750
p1119
aV-73.9373860
p1120
aV-73.9570500
p1121
aV-73.8536500
p1122
aV-73.9569500
p1123
aV-73.8307600
p1124
aV-73.8305050
p1125
aV-73.8420100
p1126
aV-73.7347700
p1127
aV-73.9123400
p1128
aV-73.8680600
p1129
aV-73.9905240
p1130
aV-73.7711600
p1131
aV-73.7757200
p1132
aV-73.9382250
p1133
aV-73.8340500
p1134
aV-73.9868200
p1135
aV-73.8376700
p1136
aV-73.9930340
p1137
aV-73.8236600
p1138
aV-73.9521200
p1139
aV-74.1913400
p1140
aV-73.9442000
p1141
aV-73.9590800
p1142
aV-73.8949400
p1143
aV-73.9912200
p1144
aV-73.9742900
p1145
aV-73.9908500
p1146
aV-73.8615000
p1147
aV-73.8234940
p1148
aV-73.9857500
p1149
aV-73.9227700
p1150
aV-73.9225000
p1151
aV-73.8355100
p1152
aV-73.9198460
p1153
aV-73.9311700
p1154
aV-73.9992600
p1155
aV-73.9511800
p1156
aV-73.9558260
p1157
aV-73.9519000
p1158
aV-73.8684900
p1159
aV-73.9253900
p1160
aV-73.9700850
p1161
aV-74.0128250
p1162
aV-73.8576300
p1163
aV-74.0753300
p1164
aV-73.9425100
p1165
aV-73.8684700
p1166
aV-73.7215200
p1167
aV-74.0035700
p1168
aV-73.9580500
p1169
aV-73.9624400
p1170
aV-73.8936500
p1171
aV-73.8624700
p1172
aV-73.9017300
p1173
aV-73.8862900
p1174
aV-73.8557900
p1175
aV-73.8088000
p1176
aV-73.8324000
p1177
aV-73.8867500
p1178
aV-73.8725700
p1179
aV-73.9731500
p1180
aV-73.8947000
p1181
aV-73.9335500
p1182
aV-73.9317500
p1183
aV-73.9430700
p1184
aV-73.9429300
p1185
aV-74.0069200
p1186
aV-73.9193300
p1187
aV-73.8953500
p1188
aV-73.9293100
p1189
aV-73.8026350
p1190
aV-73.9339000
p1191
aV-74.0197200
p1192
aV-73.9155040
p1193
aV-73.8592900
p1194
aV-73.9319840
p1195
aV-73.8786540
p1196
aV-73.9371900
p1197
aV-73.9685440
p1198
aV-73.9960100
p1199
aV-73.9037500
p1200
aV-73.9537900
p1201
aV-73.8557100
p1202
aV-73.9850400
p1203
aV-73.9097000
p1204
aV-73.9629800
p1205
aV-73.9449000
p1206
aV-74.0661400
p1207
aV-73.8580250
p1208
aV-73.9150000
p1209
aV-73.8273900
p1210
aV-73.9929050
p1211
aV-73.9257660
p1212
aV-73.8884660
p1213
aV-73.8118600
p1214
aV-73.9688500
p1215
aV-73.9344400
p1216
aV-73.9587250
p1217
aV-73.8751750
p1218
aV-73.9531200
p1219
aV-74.0761500
p1220
aV-73.9590450
p1221
aV-73.9822850
p1222
aV-73.9213940
p1223
aV-73.9572140
p1224
aV-73.7692000
p1225
aV-73.9208400
p1226
aV-73.9608400
p1227
aV-73.9495800
p1228
aV-73.8805200
p1229
aV-73.9310900
p1230
aV-73.9288250
p1231
aV-73.8861200
p1232
aV-73.9517000
p1233
aV-73.8433100
p1234
aV-73.9250000
p1235
aV-73.7600100
p1236
aV-73.8207000
p1237
aV-74.0010400
p1238
aV-73.9999500
p1239
aV-73.7917100
p1240
aV-73.9821550
p1241
aV-73.9069200
p1242
aV-73.9652300
p1243
aV-73.9939400
p1244
aV-73.9830860
p1245
aV-74.0105740
p1246
aV-73.9904300
p1247
aV-73.8437100
p1248
aV-73.9863600
p1249
aV-74.0077900
p1250
aV-73.9479750
p1251
aV-73.9048300
p1252
aV-73.9423800
p1253
aV-73.9335800
p1254
aV-73.9418500
p1255
aV-73.9548000
p1256
aV-73.9381400
p1257
aV-73.9751100
p1258
aV-73.9308500
p1259
aV-73.9564000
p1260
aV-73.9039600
p1261
aV-73.9751500
p1262
aV-73.9287500
p1263
aV-73.9172700
p1264
aV-73.8394100
p1265
aV-73.7994000
p1266
aV-73.9063800
p1267
aV-73.9707640
p1268
aV-73.8265900
p1269
aV-73.8262400
p1270
aV-73.9049200
p1271
aV-73.9402500
p1272
aV-73.9643000
p1273
aV-73.9790100
p1274
aV-73.9437100
p1275
aV-73.9721100
p1276
aV-73.9899700
p1277
aV-73.8715740
p1278
aV-73.8447950
p1279
aV-73.7939450
p1280
aV-73.9832700
p1281
aV-73.9832200
p1282
aV-73.7689400
p1283
aV-73.9168550
p1284
aV-73.9033660
p1285
aV-73.8925700
p1286
aV-73.8958000
p1287
aV-73.8548000
p1288
aV-73.9243240
p1289
aV-73.9028700
p1290
aV-74.0052300
p1291
aV-73.9530100
p1292
aV-73.9253900
p1293
aV-73.9974500
p1294
aV-73.9105000
p1295
aV-73.9308800
p1296
aV-73.8615500
p1297
aV-73.9045800
p1298
aV-73.9146000
p1299
aV-73.9638700
p1300
aV-73.8254240
p1301
aV-73.9194000
p1302
aV-73.7555850
p1303
aV-73.8653600
p1304
aV-73.9915700
p1305
aV-73.9741700
p1306
aV-73.8257450
p1307
aV-73.9764000
p1308
aV-73.9174900
p1309
aV-73.9521300
p1310
aV-73.8979600
p1311
aV-74.0031600
p1312
aV-73.8331300
p1313
aV-73.7532400
p1314
aV-73.9936140
p1315
aV-73.8928600
p1316
aV-73.9403000
p1317
aV-73.8800500
p1318
aV-73.8644500
p1319
aV-73.9015900
p1320
aV-73.8720900
p1321
aV-73.7774050
p1322
aV-73.9404500
p1323
aV-73.9256100
p1324
aV-73.8382400
p1325
aV-73.9572140
p1326
aV-73.9322360
p1327
aV-73.8554300
p1328
aV-73.9816300
p1329
aV-73.8788700
p1330
aV-73.9065550
p1331
aV-73.9402700
p1332
aV-73.9821000
p1333
aV-73.9447860
p1334
aV-74.0774800
p1335
aV-74.0166700
p1336
aV-73.8908300
p1337
aV-73.8745100
p1338
aV-73.8697100
p1339
aV-73.9682300
p1340
aV-73.9363700
p1341
aV-73.9102500
p1342
aV-73.9110600
p1343
aV-73.9792500
p1344
aV-73.9086900
p1345
aV-73.9792900
p1346
aV-73.9963800
p1347
aV-73.9050500
p1348
aV-74.0209960
p1349
aV-73.8628900
p1350
aV-73.9866940
p1351
aV-73.8167950
p1352
aV-73.7857600
p1353
aV-73.9229100
p1354
aV-73.9509350
p1355
aV-73.8520600
p1356
aV-73.7894300
p1357
aV-73.8996350
p1358
aV-73.8346500
p1359
aV-73.8133540
p1360
aV-73.8700560
p1361
aV-73.8608100
p1362
aV-73.9368000
p1363
aV-73.9762950
p1364
aV-73.9215850
p1365
aV-73.9239300
p1366
aV-73.8632500
p1367
aV-73.8520300
p1368
aV-73.9527100
p1369
aV-73.8715740
p1370
aV-73.9998600
p1371
aV-73.9157260
p1372
aV-73.9085200
p1373
aV-73.7368100
p1374
aV-73.7930400
p1375
aV-73.8666000
p1376
aV-74.1570900
p1377
aV-73.8989500
p1378
aV-73.9668900
p1379
aV-73.7999300
p1380
aV-73.9845300
p1381
aV-73.9101500
p1382
aV-73.7959750
p1383
aV-73.8797760
p1384
aV-73.9631040
p1385
aV-73.9056600
p1386
aV-73.9202900
p1387
aV-73.7961600
p1388
aV-73.9815100
p1389
aV-73.8477700
p1390
aV-73.9239350
p1391
aV-73.9073000
p1392
aV-73.8600800
p1393
aV-74.0074700
p1394
aV-74.0092100
p1395
aV-73.7575000
p1396
aV-73.9323350
p1397
aV-73.9545440
p1398
aV-73.9863800
p1399
aV-73.8979900
p1400
aV-73.8208600
p1401
aV-73.7440100
p1402
aV-73.9078000
p1403
aV-73.8324000
p1404
aV-73.7834000
p1405
aV-73.9642700
p1406
aV-73.8972000
p1407
aV-73.9159100
p1408
aV-73.7409900
p1409
aV-73.7822900
p1410
aV-73.8988400
p1411
aV-73.9933700
p1412
aV-73.8033400
p1413
aV-74.1554400
p1414
aV-73.9909100
p1415
aV-73.9905240
p1416
aV-73.9630200
p1417
aV-74.0110300
p1418
aV-73.9366600
p1419
aV-73.9917800
p1420
aV-73.8705600
p1421
aV-73.9937400
p1422
aV-73.9704800
p1423
aV-73.8449900
p1424
aV-73.8260800
p1425
aV-73.8894960
p1426
aV-73.9074800
p1427
aV-73.9467800
p1428
aV-73.9152760
p1429
aV-74.0083800
p1430
aV-73.7702200
p1431
aV-73.9560900
p1432
aV-73.9447300
p1433
aV-73.9978900
p1434
aV-73.7363000
p1435
aV-73.8654900
p1436
aV-74.0148300
p1437
aV-73.8837500
p1438
aV-73.9588200
p1439
aV-73.8861000
p1440
aV-73.9652200
p1441
aV-73.9869500
p1442
aV-73.9457100
p1443
aV-73.9641500
p1444
aV-73.7747000
p1445
aV-73.9771700
p1446
aV-73.7976500
p1447
aV-73.9925400
p1448
aV-73.9932900
p1449
aV-73.9443100
p1450
aV-73.8484000
p1451
aV-74.0075100
p1452
aV-73.9814100
p1453
aV-73.9584800
p1454
aV-73.9164700
p1455
aV-73.8875600
p1456
aV-73.8797400
p1457
aV-73.9035800
p1458
aV-73.8808400
p1459
aV-73.9253600
p1460
aV-73.8793700
p1461
aV-73.8383000
p1462
aV-73.8923300
p1463
aV-73.9583600
p1464
aV-73.9939400
p1465
aV-73.9763800
p1466
aV-73.9342400
p1467
aV-73.9201350
p1468
aV-73.7956200
p1469
aV-74.1530500
p1470
aV-73.8877300
p1471
aV-73.8119350
p1472
aV-73.7311250
p1473
aV-73.7791900
p1474
aV-74.0087700
p1475
aV-73.8367840
p1476
aV-74.0099600
p1477
aV-73.9077500
p1478
aV-73.8508000
p1479
aV-73.9417800
p1480
aV-73.8108200
p1481
aV-73.8331300
p1482
aV-73.9406900
p1483
aV-73.8508700
p1484
aV-73.9988200
p1485
aV-74.0061950
p1486
aV-73.8263100
p1487
aV-73.7552000
p1488
aV-73.8159100
p1489
aV-73.8671700
p1490
aV-73.9479000
p1491
aV-73.8947500
p1492
aV-73.7448300
p1493
aV-73.8782200
p1494
aV-73.9470200
p1495
aV-73.9767700
p1496
aV-73.9829300
p1497
aV-73.9193700
p1498
aV-74.0146800
p1499
aV-73.8009950
p1500
aV-73.9362500
p1501
aV-73.7858100
p1502
aV-73.9703300
p1503
aV-73.9871100
p1504
aV-74.0019900
p1505
aV-73.9947600
p1506
aV-73.9749450
p1507
aV-73.7437800
p1508
aV-73.7488860
p1509
aV-73.9496500
p1510
aV-73.9097000
p1511
aV-73.9953100
p1512
aV-73.8757000
p1513
aV-74.0237200
p1514
aV-73.9138100
p1515
aV-73.9804700
p1516
aV-73.9731140
p1517
aV-73.9838900
p1518
aV-73.8416000
p1519
aV-73.8720900
p1520
aV-73.9672800
p1521
aV-73.9940400
p1522
aV-73.9002150
p1523
aV-73.9454960
p1524
aV-73.9773800
p1525
aV-73.9983200
p1526
aV-73.9435600
p1527
aV-73.9299100
p1528
aV-73.9653000
p1529
aV-73.9167300
p1530
aV-73.9033300
p1531
aV-73.9637700
p1532
aV-73.8417200
p1533
aV-73.9363500
p1534
aV-73.8932900
p1535
aV-73.8786000
p1536
aV-73.7604300
p1537
aV-73.9661560
p1538
aV-73.7474600
p1539
aV-73.7405900
p1540
aV-73.9261600
p1541
aV-74.0786400
p1542
aV-73.8806150
p1543
aV-73.8924600
p1544
aV-73.9925460
p1545
aV-73.9349600
p1546
aV-73.9224200
p1547
aV-73.9447700
p1548
aV-73.8198400
p1549
aV-73.9826660
p1550
aV-73.8829500
p1551
aV-73.9289100
p1552
aV-73.7849700
p1553
aV-73.9987600
p1554
aV-73.9614100
p1555
aV-73.9503300
p1556
aV-73.9526000
p1557
aV-73.8492000
p1558
aV-73.9163200
p1559
aV-73.9792400
p1560
aV-73.9303900
p1561
aV-74.0070800
p1562
aV-73.9020800
p1563
aV-73.7842600
p1564
aV-74.0167000
p1565
aV-73.9447600
p1566
aV-73.7521740
p1567
aV-73.9295960
p1568
aV-73.9921650
p1569
aV-73.8761600
p1570
aV-73.8968700
p1571
aV-73.8202200
p1572
aV-74.1406860
p1573
aV-73.9534800
p1574
aV-73.9298900
p1575
aV-73.9418500
p1576
aV-73.9537300
p1577
aV-73.8616600
p1578
aV-73.8943900
p1579
aV-73.8676800
p1580
aV-73.9191300
p1581
aV-73.8288040
p1582
aV-73.8257900
p1583
aV-73.9223900
p1584
aV-73.8193200
p1585
aV-73.9304100
p1586
aV-73.9485100
p1587
aV-73.9959500
p1588
aV-73.7772400
p1589
aV-73.9231400
p1590
aV-74.1221800
p1591
aV-73.9803700
p1592
aV-73.8663000
p1593
aV-73.9964100
p1594
aV-73.9916840
p1595
aV-73.9970600
p1596
aV-73.9424400
p1597
aV-73.7815600
p1598
aV-73.8966600
p1599
aV-73.9655800
p1600
aV-73.9158700
p1601
aV-74.0032000
p1602
aV-73.9583000
p1603
aV-73.8625100
p1604
aV-73.9351900
p1605
aV-73.9875100
p1606
aV-73.9442440
p1607
aV-73.9788500
p1608
aV-73.7706600
p1609
aV-73.9970200
p1610
aV-73.8501500
p1611
aV-73.8644600
p1612
aV-73.8289300
p1613
aV-73.9013500
p1614
aV-73.9455500
p1615
aV-74.0003500
p1616
aV-73.9574100
p1617
aV-73.9278260
p1618
aV-73.8365300
p1619
aV-73.9072400
p1620
aV-73.8686800
p1621
aV-73.9845300
p1622
aV-73.9788400
p1623
aV-73.9890500
p1624
aV-73.9520200
p1625
aV-73.9551500
p1626
aV-73.7183800
p1627
aV-74.0014340
p1628
aV-73.9929400
p1629
aV-73.9128200
p1630
aV-73.9474100
p1631
aV-73.9061200
p1632
aV-74.0019700
p1633
aV-73.9895700
p1634
aV-73.9426350
p1635
aV-73.9822100
p1636
aV-73.9291300
p1637
aV-73.9709240
p1638
aV-73.9150000
p1639
aV-73.9312100
p1640
aV-73.9495850
p1641
aV-73.8611150
p1642
aV-73.9298900
p1643
aV-74.0073100
p1644
aV-73.8340450
p1645
aV-73.9831540
p1646
aV-73.9387000
p1647
aV-74.0103300
p1648
aV-73.9487500
p1649
aV-73.8262500
p1650
aV-73.8985700
p1651
aV-73.8897000
p1652
aV-73.9658300
p1653
aV-73.9482400
p1654
aV-73.9962000
p1655
aV-73.9726200
p1656
aV-73.9276660
p1657
aV-73.9976040
p1658
aV-73.9172800
p1659
aV-73.7024300
p1660
aV-73.9546600
p1661
aV-73.8822200
p1662
aV-73.9982600
p1663
aV-73.8824700
p1664
aV-73.8900400
p1665
aV-73.8538600
p1666
aV-73.7226900
p1667
aV-73.8355100
p1668
aV-73.8640800
p1669
aV-73.8445900
p1670
aV-73.8958000
p1671
aV-73.9919000
p1672
aV-74.0117200
p1673
aV-73.9831800
p1674
atp1675
bsS'radius'
p1676
I8
sS'lat'
p1677
g751
(g752
(I0
tp1678
g754
tp1679
Rp1680
(I1
(I910
tp1681
g761
I00
(lp1682
V40.6760520
p1683
aV40.6577800
p1684
aV40.7181430
p1685
aV40.8405340
p1686
aV40.7454400
p1687
aV40.7265240
p1688
aV40.6675220
p1689
aV40.8582100
p1690
aV40.6664920
p1691
aV40.8377200
p1692
aV40.6816400
p1693
aV40.6440470
p1694
aV40.6984630
p1695
aV40.7166520
p1696
aV40.6785500
p1697
aV40.7208900
p1698
aV40.6815570
p1699
aV40.8657260
p1700
aV40.5231360
p1701
aV40.8369940
p1702
aV40.6166530
p1703
aV40.7562070
p1704
aV40.7571070
p1705
aV40.7357980
p1706
aV40.6258430
p1707
aV40.7091200
p1708
aV40.6542200
p1709
aV40.7736630
p1710
aV40.7434800
p1711
aV40.6483760
p1712
aV40.8396150
p1713
aV40.7444300
p1714
aV40.6034000
p1715
aV40.7130700
p1716
aV40.7048530
p1717
aV40.7500150
p1718
aV40.7293500
p1719
aV40.8039600
p1720
aV40.6498600
p1721
aV40.6846240
p1722
aV40.5348130
p1723
aV40.8182100
p1724
aV40.5782740
p1725
aV40.8322300
p1726
aV40.6765300
p1727
aV40.6884100
p1728
aV40.6966630
p1729
aV40.7693330
p1730
aV40.7563670
p1731
aV40.7820550
p1732
aV40.7245520
p1733
aV40.5933270
p1734
aV40.6153830
p1735
aV40.5849300
p1736
aV40.7407300
p1737
aV40.8095630
p1738
aV40.6615220
p1739
aV40.6513630
p1740
aV40.6666950
p1741
aV40.6763270
p1742
aV40.8526500
p1743
aV40.6835480
p1744
aV40.6723820
p1745
aV40.7000540
p1746
aV40.7519900
p1747
aV40.6692730
p1748
aV40.5704650
p1749
aV40.8041340
p1750
aV40.7491840
p1751
aV40.7534750
p1752
aV40.7026140
p1753
aV40.6641920
p1754
aV40.7622900
p1755
aV40.7575340
p1756
aV40.6409450
p1757
aV40.7666170
p1758
aV40.6848800
p1759
aV40.6183400
p1760
aV40.6139530
p1761
aV40.7240200
p1762
aV40.7422520
p1763
aV40.7206340
p1764
aV40.6675220
p1765
aV40.8396150
p1766
aV40.6153530
p1767
aV40.6825370
p1768
aV40.7676900
p1769
aV40.7347830
p1770
aV40.7144900
p1771
aV40.8326500
p1772
aV40.7268940
p1773
aV40.7277300
p1774
aV40.6417270
p1775
aV40.6661200
p1776
aV40.8544770
p1777
aV40.7327100
p1778
aV40.5164570
p1779
aV40.5311100
p1780
aV40.7702560
p1781
aV40.6223700
p1782
aV40.7191350
p1783
aV40.8435250
p1784
aV40.7626300
p1785
aV40.7467880
p1786
aV40.6818540
p1787
aV40.7906900
p1788
aV40.7642800
p1789
aV40.6854860
p1790
aV40.7541540
p1791
aV40.7057650
p1792
aV40.7375000
p1793
aV40.6022600
p1794
aV40.6974370
p1795
aV40.8499900
p1796
aV40.7408750
p1797
aV40.7011500
p1798
aV40.6438100
p1799
aV40.8110730
p1800
aV40.6558950
p1801
aV40.8459240
p1802
aV40.6960330
p1803
aV40.8481180
p1804
aV40.7019540
p1805
aV40.8411870
p1806
aV40.6156920
p1807
aV40.6748850
p1808
aV40.8332330
p1809
aV40.5850260
p1810
aV40.6914250
p1811
aV40.6052860
p1812
aV40.7259200
p1813
aV40.7438240
p1814
aV40.7502800
p1815
aV40.8938000
p1816
aV40.8325000
p1817
aV40.8171730
p1818
aV40.7457240
p1819
aV40.6424830
p1820
aV40.8439940
p1821
aV40.6569440
p1822
aV40.7426760
p1823
aV40.7045440
p1824
aV40.8641320
p1825
aV40.5928700
p1826
aV40.7339670
p1827
aV40.6835800
p1828
aV40.6633600
p1829
aV40.6477280
p1830
aV40.7716100
p1831
aV40.6360400
p1832
aV40.7027240
p1833
aV40.9060060
p1834
aV40.8563880
p1835
aV40.8278540
p1836
aV40.6566100
p1837
aV40.6578640
p1838
aV40.7647440
p1839
aV40.8399700
p1840
aV40.6829700
p1841
aV40.6204000
p1842
aV40.6670500
p1843
aV40.8807800
p1844
aV40.6096420
p1845
aV40.6857300
p1846
aV40.6811260
p1847
aV40.6482240
p1848
aV40.6976620
p1849
aV40.6872500
p1850
aV40.7554800
p1851
aV40.8160800
p1852
aV40.6209000
p1853
aV40.6804540
p1854
aV40.8142660
p1855
aV40.7692220
p1856
aV40.5869500
p1857
aV40.8165500
p1858
aV40.6771100
p1859
aV40.7666850
p1860
aV40.7583050
p1861
aV40.7673300
p1862
aV40.7838300
p1863
aV40.8554300
p1864
aV40.6094000
p1865
aV40.8836330
p1866
aV40.7508900
p1867
aV40.6806400
p1868
aV40.7215230
p1869
aV40.5924840
p1870
aV40.6193050
p1871
aV40.6383400
p1872
aV40.7245200
p1873
aV40.9036830
p1874
aV40.7452350
p1875
aV40.7504800
p1876
aV40.7606000
p1877
aV40.6046640
p1878
aV40.6867600
p1879
aV40.8660620
p1880
aV40.8368950
p1881
aV40.7373350
p1882
aV40.7953600
p1883
aV40.6680220
p1884
aV40.6777730
p1885
aV40.7389530
p1886
aV40.7652240
p1887
aV40.6649600
p1888
aV40.7045300
p1889
aV40.6804470
p1890
aV40.6804470
p1891
aV40.7270900
p1892
aV40.8232500
p1893
aV40.6924500
p1894
aV40.7140600
p1895
aV40.6315270
p1896
aV40.7573360
p1897
aV40.7526440
p1898
aV40.8636900
p1899
aV40.5975800
p1900
aV40.7990900
p1901
aV40.6507200
p1902
aV40.6032030
p1903
aV40.6697350
p1904
aV40.6383100
p1905
aV40.7078500
p1906
aV40.6913260
p1907
aV40.7892530
p1908
aV40.7982520
p1909
aV40.7546200
p1910
aV40.6744540
p1911
aV40.6992400
p1912
aV40.6711600
p1913
aV40.6941070
p1914
aV40.8559720
p1915
aV40.6913720
p1916
aV40.6707000
p1917
aV40.8067970
p1918
aV40.6414150
p1919
aV40.7092250
p1920
aV40.6234930
p1921
aV40.8441430
p1922
aV40.6247020
p1923
aV40.7353100
p1924
aV40.6666950
p1925
aV40.6810800
p1926
aV40.7243080
p1927
aV40.8481180
p1928
aV40.7933770
p1929
aV40.6439930
p1930
aV40.7118450
p1931
aV40.6776280
p1932
aV40.6343800
p1933
aV40.6771930
p1934
aV40.7493500
p1935
aV40.6195700
p1936
aV40.6725900
p1937
aV40.7878840
p1938
aV40.6854100
p1939
aV40.7115970
p1940
aV40.8077700
p1941
aV40.5953750
p1942
aV40.7338030
p1943
aV40.8501800
p1944
aV40.7063560
p1945
aV40.8843960
p1946
aV40.6958580
p1947
aV40.6811260
p1948
aV40.6362650
p1949
aV40.5438700
p1950
aV40.6212160
p1951
aV40.5413250
p1952
aV40.8127250
p1953
aV40.8150020
p1954
aV40.6374470
p1955
aV40.7533700
p1956
aV40.7378100
p1957
aV40.6649600
p1958
aV40.6764950
p1959
aV40.8326230
p1960
aV40.8892000
p1961
aV40.8527870
p1962
aV40.6198200
p1963
aV40.6711960
p1964
aV40.6625140
p1965
aV40.6553960
p1966
aV40.6555820
p1967
aV40.8386300
p1968
aV40.6928600
p1969
aV40.6674300
p1970
aV40.6657900
p1971
aV40.5788500
p1972
aV40.7324070
p1973
aV40.8316400
p1974
aV40.7542080
p1975
aV40.7069850
p1976
aV40.7191800
p1977
aV40.8543800
p1978
aV40.7808570
p1979
aV40.5847900
p1980
aV40.7387800
p1981
aV40.6701400
p1982
aV40.6737670
p1983
aV40.9040300
p1984
aV40.6892280
p1985
aV40.7746120
p1986
aV40.7248880
p1987
aV40.8435250
p1988
aV40.6773260
p1989
aV40.7002330
p1990
aV40.6822100
p1991
aV40.6175350
p1992
aV40.6432150
p1993
aV40.7170900
p1994
aV40.6004260
p1995
aV40.8820150
p1996
aV40.6573300
p1997
aV40.7483060
p1998
aV40.6757350
p1999
aV40.8777050
p2000
aV40.7724200
p2001
aV40.8233000
p2002
aV40.7290840
p2003
aV40.7045820
p2004
aV40.7504500
p2005
aV40.6810200
p2006
aV40.7067600
p2007
aV40.6731030
p2008
aV40.6609700
p2009
aV40.7206230
p2010
aV40.8274730
p2011
aV40.6818500
p2012
aV40.7203400
p2013
aV40.8712200
p2014
aV40.7104700
p2015
aV40.7406230
p2016
aV40.6283950
p2017
aV40.5949700
p2018
aV40.7422830
p2019
aV40.6541400
p2020
aV40.7558800
p2021
aV40.5739700
p2022
aV40.7583400
p2023
aV40.7652360
p2024
aV40.6768900
p2025
aV40.6721600
p2026
aV40.7144500
p2027
aV40.6678500
p2028
aV40.7144500
p2029
aV40.7067070
p2030
aV40.7151870
p2031
aV40.7547760
p2032
aV40.5960240
p2033
aV40.8037340
p2034
aV40.6369130
p2035
aV40.8653870
p2036
aV40.7206420
p2037
aV40.7489240
p2038
aV40.6619640
p2039
aV40.6840100
p2040
aV40.7270600
p2041
aV40.7816700
p2042
aV40.7170200
p2043
aV40.8346250
p2044
aV40.6833460
p2045
aV40.6541370
p2046
aV40.8777960
p2047
aV40.7402600
p2048
aV40.7598700
p2049
aV40.7432750
p2050
aV40.7873900
p2051
aV40.6905500
p2052
aV40.7477200
p2053
aV40.7664340
p2054
aV40.6051670
p2055
aV40.6990130
p2056
aV40.7152560
p2057
aV40.5969100
p2058
aV40.8146320
p2059
aV40.6129570
p2060
aV40.7443200
p2061
aV40.7512440
p2062
aV40.5879400
p2063
aV40.7506700
p2064
aV40.8335880
p2065
aV40.7646500
p2066
aV40.7526050
p2067
aV40.8173870
p2068
aV40.8624100
p2069
aV40.7705540
p2070
aV40.7374650
p2071
aV40.8040660
p2072
aV40.7595140
p2073
aV40.6689870
p2074
aV40.7723100
p2075
aV40.7770350
p2076
aV40.6503370
p2077
aV40.7074050
p2078
aV40.7596240
p2079
aV40.7024500
p2080
aV40.6765670
p2081
aV40.6420480
p2082
aV40.6389660
p2083
aV40.8326900
p2084
aV40.7567300
p2085
aV40.6584130
p2086
aV40.7004500
p2087
aV40.6631240
p2088
aV40.6746330
p2089
aV40.8192440
p2090
aV40.8510320
p2091
aV40.6527520
p2092
aV40.8654400
p2093
aV40.7038230
p2094
aV40.7522600
p2095
aV40.8452030
p2096
aV40.8565370
p2097
aV40.7902400
p2098
aV40.6611250
p2099
aV40.6195700
p2100
aV40.6462000
p2101
aV40.7014240
p2102
aV40.8232570
p2103
aV40.7162400
p2104
aV40.6970600
p2105
aV40.7259180
p2106
aV40.6651150
p2107
aV40.6664050
p2108
aV40.6689500
p2109
aV40.6498600
p2110
aV40.6857600
p2111
aV40.8991470
p2112
aV40.7384720
p2113
aV40.6731200
p2114
aV40.8076000
p2115
aV40.5762900
p2116
aV40.7639960
p2117
aV40.8473240
p2118
aV40.6629450
p2119
aV40.8676760
p2120
aV40.7618300
p2121
aV40.8746000
p2122
aV40.7624860
p2123
aV40.8446700
p2124
aV40.6140860
p2125
aV40.7030140
p2126
aV40.7638930
p2127
aV40.8492470
p2128
aV40.7199700
p2129
aV40.8118400
p2130
aV40.7665700
p2131
aV40.7161140
p2132
aV40.7859700
p2133
aV40.8142300
p2134
aV40.7723300
p2135
aV40.8278270
p2136
aV40.8134960
p2137
aV40.6419260
p2138
aV40.7050400
p2139
aV40.7515750
p2140
aV40.7668950
p2141
aV40.6635170
p2142
aV40.7466500
p2143
aV40.7026860
p2144
aV40.6490600
p2145
aV40.6508060
p2146
aV40.6851700
p2147
aV40.6582950
p2148
aV40.8608630
p2149
aV40.7648500
p2150
aV40.6586040
p2151
aV40.6753120
p2152
aV40.8614700
p2153
aV40.7217600
p2154
aV40.6914670
p2155
aV40.6764100
p2156
aV40.6157800
p2157
aV40.6663060
p2158
aV40.7705730
p2159
aV40.6547300
p2160
aV40.7918970
p2161
aV40.7589760
p2162
aV40.7306600
p2163
aV40.6184960
p2164
aV40.7665600
p2165
aV40.7712400
p2166
aV40.7559200
p2167
aV40.6371960
p2168
aV40.7788050
p2169
aV40.6448140
p2170
aV40.7301800
p2171
aV40.8027530
p2172
aV40.8178440
p2173
aV40.6486900
p2174
aV40.8091660
p2175
aV40.7527430
p2176
aV40.8146860
p2177
aV40.6257300
p2178
aV40.8304900
p2179
aV40.7555660
p2180
aV40.7403830
p2181
aV40.7707700
p2182
aV40.7098960
p2183
aV40.7170140
p2184
aV40.8070530
p2185
aV40.7558200
p2186
aV40.7252700
p2187
aV40.7198330
p2188
aV40.7535000
p2189
aV40.6124040
p2190
aV40.7646800
p2191
aV40.6785850
p2192
aV40.8153040
p2193
aV40.7655200
p2194
aV40.7671850
p2195
aV40.7312770
p2196
aV40.7584040
p2197
aV40.6670000
p2198
aV40.6948130
p2199
aV40.6959080
p2200
aV40.7595800
p2201
aV40.8450600
p2202
aV40.6984330
p2203
aV40.6611140
p2204
aV40.8597450
p2205
aV40.8986320
p2206
aV40.7039200
p2207
aV40.6554870
p2208
aV40.6189730
p2209
aV40.8092400
p2210
aV40.7619700
p2211
aV40.6754000
p2212
aV40.8307380
p2213
aV40.6714740
p2214
aV40.8661540
p2215
aV40.8892630
p2216
aV40.8605160
p2217
aV40.8029700
p2218
aV40.7173350
p2219
aV40.6656070
p2220
aV40.6657330
p2221
aV40.6518630
p2222
aV40.7497060
p2223
aV40.6862070
p2224
aV40.7157200
p2225
aV40.6311200
p2226
aV40.8068200
p2227
aV40.7652700
p2228
aV40.6778870
p2229
aV40.7276600
p2230
aV40.7282300
p2231
aV40.6801150
p2232
aV40.7531280
p2233
aV40.8618280
p2234
aV40.8480000
p2235
aV40.6813960
p2236
aV40.6760940
p2237
aV40.8444000
p2238
aV40.7159900
p2239
aV40.7582050
p2240
aV40.8031230
p2241
aV40.6524470
p2242
aV40.8708400
p2243
aV40.6635170
p2244
aV40.6838300
p2245
aV40.7454100
p2246
aV40.7786060
p2247
aV40.7707180
p2248
aV40.6945570
p2249
aV40.7509650
p2250
aV40.7688900
p2251
aV40.8057600
p2252
aV40.6255870
p2253
aV40.6030700
p2254
aV40.8203050
p2255
aV40.8239020
p2256
aV40.6513600
p2257
aV40.6794200
p2258
aV40.8303950
p2259
aV40.7694300
p2260
aV40.5607450
p2261
aV40.7470660
p2262
aV40.6426730
p2263
aV40.7767300
p2264
aV40.7192800
p2265
aV40.6937030
p2266
aV40.6412240
p2267
aV40.8291600
p2268
aV40.7816660
p2269
aV40.7031300
p2270
aV40.7267950
p2271
aV40.8587880
p2272
aV40.7858660
p2273
aV40.7376820
p2274
aV40.6714480
p2275
aV40.6960030
p2276
aV40.7621460
p2277
aV40.7542000
p2278
aV40.7334480
p2279
aV40.6847420
p2280
aV40.7598840
p2281
aV40.7482450
p2282
aV40.7031140
p2283
aV40.8491670
p2284
aV40.7551300
p2285
aV40.8280940
p2286
aV40.7765600
p2287
aV40.6816860
p2288
aV40.7217900
p2289
aV40.8136140
p2290
aV40.7688750
p2291
aV40.7473340
p2292
aV40.7577550
p2293
aV40.7693180
p2294
aV40.6156500
p2295
aV40.6688160
p2296
aV40.6933400
p2297
aV40.6826000
p2298
aV40.6960330
p2299
aV40.8402060
p2300
aV40.7628000
p2301
aV40.8311400
p2302
aV40.6249850
p2303
aV40.6745530
p2304
aV40.8029140
p2305
aV40.5928460
p2306
aV40.7349360
p2307
aV40.8719440
p2308
aV40.6889420
p2309
aV40.8564030
p2310
aV40.7383730
p2311
aV40.7072200
p2312
aV40.7133400
p2313
aV40.7259750
p2314
aV40.8461530
p2315
aV40.5851330
p2316
aV40.7303770
p2317
aV40.7772520
p2318
aV40.6891330
p2319
aV40.6950340
p2320
aV40.7050200
p2321
aV40.7523160
p2322
aV40.7577600
p2323
aV40.6199840
p2324
aV40.6141930
p2325
aV40.6766050
p2326
aV40.6915780
p2327
aV40.7576560
p2328
aV40.8593030
p2329
aV40.7472340
p2330
aV40.6776700
p2331
aV40.6084330
p2332
aV40.7505870
p2333
aV40.6720660
p2334
aV40.7101500
p2335
aV40.7259370
p2336
aV40.6690980
p2337
aV40.7098100
p2338
aV40.7687260
p2339
aV40.7377900
p2340
aV40.6241800
p2341
aV40.7548200
p2342
aV40.7027700
p2343
aV40.7052880
p2344
aV40.7368770
p2345
aV40.8314700
p2346
aV40.8178200
p2347
aV40.6052170
p2348
aV40.7448920
p2349
aV40.7636640
p2350
aV40.7832450
p2351
aV40.5775450
p2352
aV40.7018240
p2353
aV40.7294730
p2354
aV40.7094040
p2355
aV40.7465700
p2356
aV40.7599100
p2357
aV40.6477930
p2358
aV40.7634280
p2359
aV40.7445220
p2360
aV40.6220130
p2361
aV40.6539900
p2362
aV40.7687900
p2363
aV40.6307450
p2364
aV40.7722500
p2365
aV40.7534750
p2366
aV40.6339040
p2367
aV40.6765700
p2368
aV40.6741070
p2369
aV40.6305770
p2370
aV40.6879430
p2371
aV40.7086200
p2372
aV40.6766470
p2373
aV40.7663500
p2374
aV40.8768600
p2375
aV40.7656500
p2376
aV40.7125850
p2377
aV40.6980800
p2378
aV40.8852160
p2379
aV40.7209780
p2380
aV40.7467500
p2381
aV40.7605360
p2382
aV40.7589760
p2383
aV40.7458460
p2384
aV40.6604100
p2385
aV40.7794880
p2386
aV40.7097500
p2387
aV40.5469700
p2388
aV40.6771550
p2389
aV40.7002700
p2390
aV40.6710620
p2391
aV40.7428930
p2392
aV40.7081150
p2393
aV40.8833300
p2394
aV40.6521800
p2395
aV40.8211670
p2396
aV40.7302860
p2397
aV40.8070870
p2398
aV40.6924630
p2399
aV40.7282300
p2400
aV40.8380130
p2401
aV40.6912500
p2402
aV40.7230220
p2403
aV40.6784860
p2404
aV40.8563800
p2405
aV40.7343000
p2406
aV40.7567980
p2407
aV40.6829380
p2408
aV40.6217800
p2409
aV40.6674540
p2410
aV40.6931700
p2411
aV40.6446500
p2412
aV40.6843800
p2413
aV40.7434730
p2414
aV40.7502480
p2415
aV40.8648070
p2416
aV40.7098300
p2417
aV40.7753900
p2418
aV40.8407700
p2419
aV40.6889950
p2420
aV40.6445350
p2421
aV40.6901630
p2422
aV40.7557800
p2423
aV40.5778800
p2424
aV40.7460800
p2425
aV40.7209320
p2426
aV40.7583730
p2427
aV40.6789630
p2428
aV40.8746000
p2429
aV40.7496700
p2430
aV40.6885700
p2431
aV40.6169360
p2432
aV40.7735800
p2433
aV40.6812200
p2434
aV40.5830570
p2435
aV40.7132030
p2436
aV40.7188870
p2437
aV40.7607700
p2438
aV40.7634800
p2439
aV40.6678470
p2440
aV40.6662560
p2441
aV40.6611480
p2442
aV40.7742800
p2443
aV40.7608220
p2444
aV40.5836520
p2445
aV40.6162950
p2446
aV40.7593080
p2447
aV40.8184050
p2448
aV40.8653100
p2449
aV40.6020160
p2450
aV40.6916430
p2451
aV40.7403370
p2452
aV40.6592300
p2453
aV40.7600100
p2454
aV40.6833760
p2455
aV40.5866700
p2456
aV40.6957700
p2457
aV40.6661800
p2458
aV40.7440260
p2459
aV40.6116870
p2460
aV40.6791100
p2461
aV40.6537100
p2462
aV40.7355460
p2463
aV40.7377850
p2464
aV40.7690280
p2465
aV40.7925000
p2466
aV40.6044200
p2467
aV40.6860850
p2468
aV40.7416080
p2469
aV40.6153830
p2470
aV40.6957660
p2471
aV40.7184400
p2472
aV40.6521700
p2473
aV40.7866740
p2474
aV40.8107640
p2475
aV40.7381940
p2476
aV40.7408520
p2477
aV40.6682930
p2478
aV40.6517330
p2479
aV40.6547700
p2480
aV40.8102100
p2481
aV40.6961600
p2482
aV40.6355200
p2483
aV40.7197600
p2484
aV40.6022950
p2485
aV40.6856350
p2486
aV40.7197500
p2487
aV40.7715760
p2488
aV40.6376570
p2489
aV40.8362500
p2490
aV40.6245300
p2491
aV40.8036300
p2492
aV40.6871000
p2493
aV40.8178440
p2494
aV40.7820550
p2495
aV40.8775440
p2496
aV40.6380230
p2497
aV40.6809730
p2498
aV40.7299580
p2499
aV40.7566700
p2500
aV40.6772040
p2501
aV40.7011030
p2502
aV40.6078000
p2503
aV40.7462960
p2504
aV40.8338430
p2505
aV40.7589800
p2506
aV40.6796530
p2507
aV40.8634150
p2508
aV40.5709400
p2509
aV40.7342800
p2510
aV40.8348900
p2511
aV40.6689900
p2512
aV40.6630300
p2513
aV40.7089200
p2514
aV40.7539980
p2515
aV40.6817780
p2516
aV40.7668340
p2517
aV40.6741400
p2518
aV40.7041130
p2519
aV40.7369230
p2520
aV40.8156850
p2521
aV40.7561000
p2522
aV40.7552300
p2523
aV40.7245830
p2524
aV40.8474580
p2525
aV40.6662180
p2526
aV40.7108270
p2527
aV40.7429850
p2528
aV40.7493360
p2529
aV40.5716970
p2530
aV40.7637440
p2531
aV40.7222330
p2532
aV40.8392300
p2533
aV40.7212000
p2534
aV40.7701200
p2535
aV40.6978200
p2536
aV40.6667560
p2537
aV40.6878900
p2538
aV40.7461930
p2539
aV40.6960330
p2540
aV40.6788000
p2541
aV40.7365460
p2542
aV40.8270570
p2543
aV40.6559400
p2544
aV40.7436370
p2545
aV40.7160840
p2546
aV40.6885150
p2547
aV40.8618620
p2548
aV40.7936000
p2549
aV40.9016700
p2550
aV40.6427960
p2551
aV40.7015270
p2552
aV40.7402230
p2553
aV40.7730330
p2554
aV40.7278700
p2555
aV40.6265680
p2556
aV40.7638930
p2557
aV40.6936900
p2558
aV40.7621840
p2559
aV40.8980060
p2560
aV40.7520260
p2561
aV40.6547050
p2562
aV40.8640020
p2563
aV40.7388300
p2564
aV40.6692200
p2565
aV40.6451030
p2566
aV40.7015900
p2567
aV40.8429900
p2568
aV40.8441160
p2569
aV40.6338000
p2570
aV40.6882100
p2571
aV40.7176800
p2572
aV40.6665000
p2573
aV40.7590600
p2574
aV40.6262100
p2575
aV40.6702960
p2576
aV40.8513150
p2577
aV40.7427600
p2578
aV40.6800500
p2579
aV40.6545000
p2580
aV40.6046100
p2581
aV40.8263400
p2582
aV40.6839900
p2583
aV40.6883900
p2584
aV40.7345660
p2585
aV40.7705540
p2586
aV40.7460750
p2587
aV40.6806870
p2588
aV40.8597450
p2589
aV40.7292980
p2590
aV40.6127360
p2591
aV40.7561380
p2592
atp2593
bsS'type'
p2594
S'densitymapbox'
p2595
sS'coloraxis'
p2596
S'coloraxis'
p2597
sasS'_grid_str'
p2598
VThis is the format of your plot grid:\u000a[ (1,1) mapbox ]\u000a
p2599
stp2600
Rp2601
sa(dp2602
g2
(dp2603
g4
S'Hospital Capacities'
p2604
ssg6
g7
((dp2605
g9
(lp2606
(lp2607
(g12
(g13
g14
(g15
(Vmapbox
p2608
tp2609
(dp2610
g19
g2608
stp2611
tp2612
Rp2613
tp2614
aasg2
(dp2615
g25
I600
sg26
(dp2616
g2
(dp2617
g29
(dp2618
g31
(dp2619
g33
g34
sssg35
(dp2620
g37
(dp2621
g39
g40
sg41
g42
sg43
g44
ssg45
g46
sg47
(dp2622
g49
g40
sg50
g51
sg52
g53
sssg54
(lp2623
g56
ag57
ag58
ag59
ag60
ag61
ag62
ag63
ag64
ag65
asg66
(dp2624
g68
I01
sg69
(dp2625
g71
I15
ssg72
I2
sg73
g40
sg74
g75
sg76
g77
sg78
g79
ssg80
(dp2626
g82
(lp2627
(lp2628
I0
ag85
aa(lp2629
F0.1
ag87
aa(lp2630
F0.2
ag89
aa(lp2631
F0.3
ag91
aa(lp2632
F0.4
ag93
aa(lp2633
F0.5
ag95
aa(lp2634
F0.6
ag97
aa(lp2635
F0.7
ag99
aa(lp2636
F0.8
ag101
aa(lp2637
F0.9
ag103
aa(lp2638
I1
ag105
aasg106
(lp2639
(lp2640
F0.0
ag109
aa(lp2641
F0.1111111111111111
ag111
aa(lp2642
F0.2222222222222222
ag113
aa(lp2643
F0.3333333333333333
ag115
aa(lp2644
F0.4444444444444444
ag117
aa(lp2645
F0.5555555555555556
ag119
aa(lp2646
F0.6666666666666666
ag121
aa(lp2647
F0.7777777777777778
ag123
aa(lp2648
F0.8888888888888888
ag125
aa(lp2649
F1.0
ag127
aasg128
(lp2650
(lp2651
F0.0
ag131
aa(lp2652
F0.1111111111111111
ag133
aa(lp2653
F0.2222222222222222
ag135
aa(lp2654
F0.3333333333333333
ag137
aa(lp2655
F0.4444444444444444
ag139
aa(lp2656
F0.5555555555555556
ag141
aa(lp2657
F0.6666666666666666
ag143
aa(lp2658
F0.7777777777777778
ag145
aa(lp2659
F0.8888888888888888
ag147
aa(lp2660
F1.0
ag149
aassg150
g151
sg152
g153
sg154
(dp2661
g156
I01
sg157
(dp2662
g159
I15
ssg160
I2
sg161
g40
sg162
g163
sg164
g165
sg166
g167
ssg168
(dp2663
g170
(dp2664
g172
g173
sg174
g40
sg175
I01
sg176
I2
sg177
g178
sg179
g180
sg181
g182
ssg183
(dp2665
g185
g186
sg187
g40
sg188
I01
sg189
I2
sg190
g191
sg192
g193
sg194
g195
ssg196
(dp2666
g198
g199
sg200
g40
sg201
I01
sg202
I2
sg203
g204
sg205
g206
sg207
g208
sssg209
(dp2667
g211
I1
sg212
I0
sg213
g214
ssg215
(dp2668
g217
g218
ssg219
(dp2669
g221
g222
sg223
(dp2670
g225
g40
sg226
g227
sg228
g229
ssg230
(dp2671
g232
g40
sg233
g234
sg235
g236
ssg237
(dp2672
g239
g40
sg240
g241
sg242
g243
sssg244
(dp2673
g246
g247
ssg248
(dp2674
g250
F0.05
ssg251
g252
sg253
(dp2675
g255
g256
ssg257
(dp2676
g259
I01
sg260
g261
sg262
I01
sg263
g264
sg265
g266
sg267
g268
ssg269
(dp2677
g271
(dp2678
g273
I0
sg274
g40
ssssg6
(dp2679
g276
(lp2680
(dp2681
g279
(dp2682
g281
I0
sg282
g40
ssg283
g284
sasg285
(lp2683
(dp2684
g288
(dp2685
g290
(dp2686
g292
I0
sg293
g40
sssg294
g295
sasg296
(lp2687
(dp2688
g299
I01
sg300
g301
sasg302
(lp2689
(dp2690
g305
(dp2691
g307
I0
sg308
g40
ssg309
g310
sg311
(lp2692
(lp2693
F0.0
ag314
aa(lp2694
F0.1111111111111111
ag316
aa(lp2695
F0.2222222222222222
ag318
aa(lp2696
F0.3333333333333333
ag320
aa(lp2697
F0.4444444444444444
ag322
aa(lp2698
F0.5555555555555556
ag324
aa(lp2699
F0.6666666666666666
ag326
aa(lp2700
F0.7777777777777778
ag328
aa(lp2701
F0.8888888888888888
ag330
aa(lp2702
F1.0
ag332
aasasg333
(lp2703
(dp2704
g336
(dp2705
g338
(dp2706
g340
g341
ssg342
(dp2707
g344
g345
sssg346
(dp2708
g348
(dp2709
g350
g351
ssg352
(dp2710
g354
g355
sssg356
g357
sasg358
(lp2711
(dp2712
g361
(dp2713
g363
(dp2714
g365
I0
sg366
g40
sssg367
g368
sasg369
(lp2715
(dp2716
g372
(dp2717
g374
I0
sg375
g40
ssg376
g377
sg378
(lp2718
(lp2719
F0.0
ag381
aa(lp2720
F0.1111111111111111
ag383
aa(lp2721
F0.2222222222222222
ag385
aa(lp2722
F0.3333333333333333
ag387
aa(lp2723
F0.4444444444444444
ag389
aa(lp2724
F0.5555555555555556
ag391
aa(lp2725
F0.6666666666666666
ag393
aa(lp2726
F0.7777777777777778
ag395
aa(lp2727
F0.8888888888888888
ag397
aa(lp2728
F1.0
ag399
aasasg400
(lp2729
(dp2730
g403
g404
sg405
(dp2731
g407
g408
sg409
g410
sg411
g412
sg413
g414
sg415
g416
ssg417
(dp2732
g419
g420
sg421
g422
sg423
g424
sg425
g426
sg427
g428
ssasg429
(lp2733
(dp2734
g432
(dp2735
g434
I0
sg435
g40
ssg436
g437
sasg438
(lp2736
(dp2737
g441
(dp2738
g443
I0
sg444
g40
ssg445
g446
sg447
(lp2739
(lp2740
F0.0
ag450
aa(lp2741
F0.1111111111111111
ag452
aa(lp2742
F0.2222222222222222
ag454
aa(lp2743
F0.3333333333333333
ag456
aa(lp2744
F0.4444444444444444
ag458
aa(lp2745
F0.5555555555555556
ag460
aa(lp2746
F0.6666666666666666
ag462
aa(lp2747
F0.7777777777777778
ag464
aa(lp2748
F0.8888888888888888
ag466
aa(lp2749
F1.0
ag468
aasasg469
(lp2750
(dp2751
g472
(dp2752
g474
(dp2753
g476
I0
sg477
g40
sssg478
g479
sasg480
(lp2754
(dp2755
g483
(dp2756
g485
(dp2757
g487
I0
sg488
g40
sssg489
(dp2758
g491
(dp2759
g493
I0
sg494
g40
sssg495
g496
sasg497
(lp2760
(dp2761
g500
(dp2762
g502
(dp2763
g504
I0
sg505
g40
sssg506
g507
sasg508
(lp2764
(dp2765
g511
(dp2766
g513
(dp2767
g515
I0
sg516
g40
sssg517
g518
sasg519
(lp2768
(dp2769
g522
(dp2770
g524
I0
sg525
g40
ssg526
g527
sg528
(lp2771
(lp2772
F0.0
ag531
aa(lp2773
F0.1111111111111111
ag533
aa(lp2774
F0.2222222222222222
ag535
aa(lp2775
F0.3333333333333333
ag537
aa(lp2776
F0.4444444444444444
ag539
aa(lp2777
F0.5555555555555556
ag541
aa(lp2778
F0.6666666666666666
ag543
aa(lp2779
F0.7777777777777778
ag545
aa(lp2780
F0.8888888888888888
ag547
aa(lp2781
F1.0
ag549
aasasg550
(lp2782
(dp2783
g553
(dp2784
g555
I0
sg556
g40
ssg557
g558
sg559
(lp2785
(lp2786
F0.0
ag562
aa(lp2787
F0.1111111111111111
ag564
aa(lp2788
F0.2222222222222222
ag566
aa(lp2789
F0.3333333333333333
ag568
aa(lp2790
F0.4444444444444444
ag570
aa(lp2791
F0.5555555555555556
ag572
aa(lp2792
F0.6666666666666666
ag574
aa(lp2793
F0.7777777777777778
ag576
aa(lp2794
F0.8888888888888888
ag578
aa(lp2795
F1.0
ag580
aasasg581
(lp2796
(dp2797
g584
(dp2798
g586
(dp2799
g588
I0
sg589
g40
sssg590
g591
sasg592
(lp2800
(dp2801
g595
(dp2802
g597
(dp2803
g599
I0
sg600
g40
sssg601
g602
sasg603
(lp2804
(dp2805
g606
(dp2806
g608
(dp2807
g610
I0
sg611
g40
sssg612
g613
sasg614
(lp2808
(dp2809
g617
(dp2810
g619
(dp2811
g621
g622
sg623
F0.5
sssg624
g625
sg626
(dp2812
g628
g629
ssg630
(dp2813
g632
g633
ssasg634
(lp2814
(dp2815
g637
(dp2816
g639
I0
sg640
g40
ssg641
g642
sasg643
(lp2817
(dp2818
g646
(dp2819
g648
(dp2820
g650
I0
sg651
g40
sssg652
g653
sasg654
(lp2821
(dp2822
g657
(dp2823
g659
(dp2824
g661
g662
sg663
F0.5
sssg664
g665
sasg666
(lp2825
(dp2826
g669
(dp2827
g671
I0
sg672
g40
ssg673
g674
sg675
(lp2828
(lp2829
F0.0
ag678
aa(lp2830
F0.1111111111111111
ag680
aa(lp2831
F0.2222222222222222
ag682
aa(lp2832
F0.3333333333333333
ag684
aa(lp2833
F0.4444444444444444
ag686
aa(lp2834
F0.5555555555555556
ag688
aa(lp2835
F0.6666666666666666
ag690
aa(lp2836
F0.7777777777777778
ag692
aa(lp2837
F0.8888888888888888
ag694
aa(lp2838
F1.0
ag696
aasasg697
(lp2839
(dp2840
g700
(dp2841
g702
(dp2842
g704
I0
sg705
g40
sssg706
g707
sasssg708
(dp2843
g710
(dp2844
g712
(lp2845
F0.0
aF1.0
asg714
(lp2846
F0.0
aF1.0
assS'zoom'
p2847
F8.9
sS'style'
p2848
g718
sg719
(dp2849
S'lat'
p2850
F40.71
sS'lon'
p2851
I-74
sssg723
(dp2852
g725
I60
ssg726
(dp2853
S'tracegroupgap'
p2854
I0
sS'itemsizing'
p2855
S'constant'
p2856
ssS'coloraxis'
p2857
(dp2858
S'colorbar'
p2859
(dp2860
S'title'
p2861
(dp2862
S'text'
p2863
S'capacity'
p2864
sssS'colorscale'
p2865
(lp2866
(lp2867
F0.0
aS'rgb(255,0,0)'
p2868
aa(lp2869
F1.0
aS'rgb(0,0,255)'
p2870
aasssg6
(lp2871
(dp2872
g745
g2608
sg746
S'capacity=%{marker.color}<br>name=%{text}<br>latitude=%{lat}<br>longitude=%{lon}<extra></extra>'
p2873
sS'showlegend'
p2874
I00
sS'legendgroup'
p2875
g749
sg748
g749
sS'text'
p2876
g751
(g752
(I0
tp2877
g754
tp2878
Rp2879
(I1
(I62
tp2880
g761
I00
(lp2881
VBronx-Lebanon Hospital Center - Concourse Division
p2882
aVBronx-Lebanon Hospital Center - Fulton Division
p2883
aVCalvary Hospital Inc
p2884
aVJacobi Medical Center
p2885
aVLincoln Medical & Mental Health Center
p2886
aVMontefiore Med Center - Jack D Weiler Hosp Of A Einstein College Div
p2887
aVMontefiore Medical Center - Henry & Lucy Moses Div
p2888
aVMontefiore Medical Center - Montefiore Westchester Square
p2889
aVMontefiore Medical Center-Wakefield Hospital
p2890
aVNorth Central Bronx Hospital
p2891
aVSbh Health System
p2892
aVBrookdale Hospital Medical Center
p2893
aVBrooklyn Hospital Center - Downtown Campus
p2894
aVConey Island Hospital
p2895
aVInterfaith Medical Center
p2896
aVKings County Hospital Center
p2897
aVKingsbrook Jewish Medical Center
p2898
aVLutheran Medical Center
p2899
aVMaimonides Medical Center
p2900
aVMount Sinai Beth Israel Brooklyn
p2901
aVNew York Community Hospital Of Brooklyn, Inc
p2902
aVNew York Methodist Hospital
p2903
aVNyulmc - Cobble Hill
p2904
aVSuny Downstate Medical Center At Lich
p2905
aVUniversity Hospital Of Brooklyn
p2906
aVWoodhull Medical & Mental Health Center
p2907
aVWyckoff Heights Medical Center
p2908
aVBellevue Hospital Center
p2909
aVColer-Goldwater Specialty Hospital & Nursing Facility - Coler Hospital Site
p2910
aVHarlem Hospital Center
p2911
aVHenry J. Carter Specialty Hospital
p2912
aVHospital For Special Surgery
p2913
aVLenox Hill Healthplex
p2914
aVLenox Hill Hospital
p2915
aVMemorial Hospital For Cancer And Allied Diseases
p2916
aVMetropolitan Hospital Center
p2917
aVMount Sinai Beth Israel
p2918
aVMount Sinai Hospital
p2919
aVMount Sinai Roosevelt
p2920
aVMount Sinai St. Luke'S
p2921
aVNew York Eye And Ear Infirmary Of Mount Sinai
p2922
aVNew York Presbyterian Hospital - Allen Hospital
p2923
aVNew York Presbyterian Hospital - Columbia Presbyterian Center
p2924
aVNew York Presbyterian Hospital - New York Weill Cornell Center
p2925
aVNew York-Presbyterian/Lower Manhattan Hospital
p2926
aVNyu Hospital For Joint Diseases
p2927
aVNyu Hospitals Center
p2928
aVRockefeller University Hospital
p2929
aVElmhurst Hospital Center
p2930
aVFlushing Hospital Medical Center
p2931
aVForest Hills Hospital
p2932
aVJamaica Hospital Medical Center
p2933
aVLong Island Jewish Medical Center
p2934
aVMount Sinai Hospital - Mount Sinai Hospital Of Queens
p2935
aVNew York Hospital Medical Center Of Queens
p2936
aVQueens Hospital Center
p2937
aVSt Johns Episcopal Hospital So Shore
p2938
aVRichmond University Medical Center
p2939
aVRumc-Bayley Seton
p2940
aVStaten Island Univ Hosp-Concord Div
p2941
aVStaten Island University Hosp-North
p2942
aVStaten Island University Hosp-South
p2943
atp2944
bsg750
g751
(g752
(I0
tp2945
g754
tp2946
Rp2947
(I1
(I62
tp2948
g758
(S'f8'
p2949
I0
I1
tp2950
Rp2951
(I3
S'<'
p2952
NNNI-1
I-1
I0
tp2953
bI00
S'\\d\x83\xfeMzR\xc0;w`\xaa\xcdyR\xc0\xaa\xb8\x1ct\xfeuR\xc0\x00\x06\xea\x94\x19vR\xc0\xc7O\xac\xa7*{R\xc0\xd2\x05\xb6\xa7&vR\xc0\x17\xa1\xa1\x0eQxR\xc0\xca\x94\xe6\xe5LvR\xc0{\x7ftN\x1ewR\xc0^|\x06\xbbcxR\xc0W<\xf8\xe6\xfbxR\xc08\xa0\x9ekdzR\xc0s\n\x8en\x96~R\xc0\x89\x85\xcfg\xc0}R\xc0\x08\x04\xfb\x83\x01|R\xc0\x1bq\xc9\xc4g|R\xc0\xaf{\x00r\xc3{R\xc0c)\x17\xb1[\x81R\xc0\xefE}\xce\xea\x7fR\xc0\xd3\xca#\xc6Y|R\xc0\xd6\x83K0\xb4|R\xc0\x84\xc7\xb8)\xaa~R\xc0\xd0\xc2\x81\xef\xd5\x7fR\xc0\x10\xa6W\n\xd3\x7fR\xc0\xd8\xd9.\xfe}|R\xc0A\x88aGV|R\xc0\xb4ovV\xb9zR\xc0$-"\x04l~R\xc0\xad\x8bfq\xf7|R\xc0\xf9fo"%|R\xc0\xf3\xa8sP;|R\xc0\x93"\x19|\xf9|R\xc0\xc0\xd8\xb2N\x0e\x80R\xc0\xe26|\xa8~}R\xc0\t`\x885<}R\xc0h\x95~:z|R\xc0\xc2\xf3\xbd\xbc\xde~R\xc0\x8d\xec\xf9N\x02}R\xc0yA\xda*)\x7fR\xc0\x81<@\xe2\x88}R\xc0\x17h^\xde\x03\x7fR\xc0Y\x07_\xbfmzR\xc0\x0e\xa2\x9a\xc4C|R\xc0 \xffe\xad\x10}R\xc0\xec\x1e\r\x16R\x80R\xc0\xf0x\x02~\xe9~R\xc0\xcfO\\\\W~R\xc0\x15U\xfb\xc7*}R\xc0\xab\x94\xebX\xaexR\xc0o8\xe3\xa8GtR\xc0i-c\xc2\x7fvR\xc0\x05zW\xbc>tR\xc0\x04.anemR\xc0\xb7\xdf\x86\xa50{R\xc0\x99\xac\xaa\x81\xcftR\xc0\x8f|L@\x90sR\xc0\x16\xa2\xb9#9pR\xc0\xe81\x18\x80\xc1\x86R\xc06\x98?\xe1\xd6\x84R\xc06q\x9e\x9e\xe2\x85R\xc0j\x84T\xccx\x85R\xc0\xd6\x02\x15\x9c\x8d\x8cR\xc0'
p2954
tp2955
bsS'marker'
p2956
(dp2957
S'opacity'
p2958
F0.9
sS'sizeref'
p2959
cnumpy.core.multiarray
scalar
p2960
(g2951
S'\xecQ\xb8\x1e\x85k\x07@'
p2961
tp2962
Rp2963
sS'color'
p2964
g751
(g752
(I0
tp2965
g754
tp2966
Rp2967
(I1
(I62
tp2968
g2951
I00
S'\x00\x00\x00\x00\x00\xf0y@\x00\x00\x00\x00\x00\x80d@\x00\x00\x00\x00\x00 l@\x00\x00\x00\x00\x00\x90|@\x00\x00\x00\x00\x00\xa0v@\x00\x00\x00\x00\x00\x80z@\x00\x00\x00\x00\x00X\x88@\x00\x00\x00\x00\x00Xw@\x00\x00\x00\x00\x00Ps@\x00\x00\x00\x00\x00\xa0j@\x00\x00\x00\x00\x00`z@\x00\x00\x00\x00\x00\x90\x80@\x00\x00\x00\x00\x00\x00}@\x00\x00\x00\x00\x000w@\x00\x00\x00\x00\x00\xf0q@\x00\x00\x00\x00\x00\xf8\x83@\x00\x00\x00\x00\x00\xe0s@\x00\x00\x00\x00\x00 |@\x00\x00\x00\x00\x008\x86@\x00\x00\x00\x00\x00\x80j@\x00\x00\x00\x00\x00\xc0`@\x00\x00\x00\x00\x00x\x82@\x00\x00\x00\x00\x00Xw@\x00\x00\x00\x00\x00\xa0\x7f@\x00\x00\x00\x00\x00\x80w@\x00\x00\x00\x00\x00@x@\x00\x00\x00\x00\x00@t@\x00\x00\x00\x00\x00\x80\x8c@\x00\x00\x00\x00\x00@j@\x00\x00\x00\x00\x00\xa0q@\x00\x00\x00\x00\x00 i@\x00\x00\x00\x00\x00\xa0i@\x00\x00\x00\x00\x00\x00\x00@\x00\x00\x00\x00\x00\xc0\x83@\x00\x00\x00\x00\x00\x10\x80@\x00\x00\x00\x00\x00 u@\x00\x00\x00\x00\x00\xc0\x8a@\x00\x00\x00\x00\x00L\x92@\x00\x00\x00\x00\x00\x10\x80@\x00\x00\x00\x00\x00\xe0}@\x00\x00\x00\x00\x00@Q@\x00\x00\x00\x00\x00 i@\x00\x00\x00\x00\x00\x18\x8f@\x00\x00\x00\x00\x00\xf0\x8a@\x00\x00\x00\x00\x00\x80f@\x00\x00\x00\x00\x00 l@\x00\x00\x00\x00\x00`\x8a@\x00\x00\x00\x00\x00\x00D@\x00\x00\x00\x00\x00\x08\x81@\x00\x00\x00\x00\x00\xb0r@\x00\x00\x00\x00\x00\x80s@\x00\x00\x00\x00\x00\xf0z@\x00\x00\x00\x00\x00\x04\x90@\x00\x00\x00\x00\x00`m@\x00\x00\x00\x00\x00\xb8\x80@\x00\x00\x00\x00\x00\xe0n@\x00\x00\x00\x00\x00\x10p@\x00\x00\x00\x00\x00\x00|@\x00\x00\x00\x00\x00\x009@\x00\x00\x00\x00\x00\x80I@\x00\x00\x00\x00\x00\xc0\x7f@\x00\x00\x00\x00\x00\xc0i@'
p2969
tp2970
bsS'sizemode'
p2971
S'area'
p2972
sg2596
S'coloraxis'
p2973
sS'size'
p2974
g751
(g752
(I0
tp2975
g754
tp2976
Rp2977
(I1
(I62
tp2978
g2951
I00
S'\x00\x00\x00\x00\x00\xf0y@\x00\x00\x00\x00\x00\x80d@\x00\x00\x00\x00\x00 l@\x00\x00\x00\x00\x00\x90|@\x00\x00\x00\x00\x00\xa0v@\x00\x00\x00\x00\x00\x80z@\x00\x00\x00\x00\x00X\x88@\x00\x00\x00\x00\x00Xw@\x00\x00\x00\x00\x00Ps@\x00\x00\x00\x00\x00\xa0j@\x00\x00\x00\x00\x00`z@\x00\x00\x00\x00\x00\x90\x80@\x00\x00\x00\x00\x00\x00}@\x00\x00\x00\x00\x000w@\x00\x00\x00\x00\x00\xf0q@\x00\x00\x00\x00\x00\xf8\x83@\x00\x00\x00\x00\x00\xe0s@\x00\x00\x00\x00\x00 |@\x00\x00\x00\x00\x008\x86@\x00\x00\x00\x00\x00\x80j@\x00\x00\x00\x00\x00\xc0`@\x00\x00\x00\x00\x00x\x82@\x00\x00\x00\x00\x00Xw@\x00\x00\x00\x00\x00\xa0\x7f@\x00\x00\x00\x00\x00\x80w@\x00\x00\x00\x00\x00@x@\x00\x00\x00\x00\x00@t@\x00\x00\x00\x00\x00\x80\x8c@\x00\x00\x00\x00\x00@j@\x00\x00\x00\x00\x00\xa0q@\x00\x00\x00\x00\x00 i@\x00\x00\x00\x00\x00\xa0i@\x00\x00\x00\x00\x00\x00\x00@\x00\x00\x00\x00\x00\xc0\x83@\x00\x00\x00\x00\x00\x10\x80@\x00\x00\x00\x00\x00 u@\x00\x00\x00\x00\x00\xc0\x8a@\x00\x00\x00\x00\x00L\x92@\x00\x00\x00\x00\x00\x10\x80@\x00\x00\x00\x00\x00\xe0}@\x00\x00\x00\x00\x00@Q@\x00\x00\x00\x00\x00 i@\x00\x00\x00\x00\x00\x18\x8f@\x00\x00\x00\x00\x00\xf0\x8a@\x00\x00\x00\x00\x00\x80f@\x00\x00\x00\x00\x00 l@\x00\x00\x00\x00\x00`\x8a@\x00\x00\x00\x00\x00\x00D@\x00\x00\x00\x00\x00\x08\x81@\x00\x00\x00\x00\x00\xb0r@\x00\x00\x00\x00\x00\x80s@\x00\x00\x00\x00\x00\xf0z@\x00\x00\x00\x00\x00\x04\x90@\x00\x00\x00\x00\x00`m@\x00\x00\x00\x00\x00\xb8\x80@\x00\x00\x00\x00\x00\xe0n@\x00\x00\x00\x00\x00\x10p@\x00\x00\x00\x00\x00\x00|@\x00\x00\x00\x00\x00\x009@\x00\x00\x00\x00\x00\x80I@\x00\x00\x00\x00\x00\xc0\x7f@\x00\x00\x00\x00\x00\xc0i@'
p2979
tp2980
bssS'mode'
p2981
S'markers+text'
p2982
sg1677
g751
(g752
(I0
tp2983
g754
tp2984
Rp2985
(I1
(I62
tp2986
g2951
I00
S'\xe7\x89\xaey\xf7kD@|\x0f\xfdAljD@\xd9\xf4\xe86\x8dlD@\x94r\x12#\x87mD@\x99\x91*\x84\x8bhD@B\x07f\xdf\xc7lD@%EH\xf9\xbepD@\xf1DZL\x9ckD@ >\xe2\xc9^rD@o\x94)\xc5\xb3pD@\xe9\xf4>{;mD@A\x92E^\xd4SD@\xe0Y\x04\xeadXD@\xd0.yr\xf6JD@\x82n\x17\xcd\xd6VD@\xfd\xf4\x0eN\x0eTD@8L\x8b\xedlTD@/\xb0\xb2"\xc6RD@\xaa\x1f\xfb\\\xdbQD@G\xa7\x9c\x952OD@e\x1d\x92\xbb\x94ND@\xd1\x9f\x17g{UD@\x07eK\x01RXD@\xb8J\' `XD@\xbe\xcb\x0e\xfb\xd9SD@\xcb\x96\xf0\xd2\x88YD@\xe0\xf9VJ#ZD@$\x93\x81B\x8f^D@\x13\x82\x14F\xf9`D@=\t.35hD@\x1eU\x14\x9c\xc8fD@*5\xae\x14\xefaD@\xaf\xdfSpm^D@\xa0T\xa6\x12\x07cD@d\xb7\x82\x07\xd7aD@\xa4\xea\x0b\xa6|dD@\xbe\xac\x98\xab\xdd]D@4\t\xc9\x9c\x1aeD@\xf2\x92\xbbd\x85bD@\xa8\xa5*\x08!gD@P\x1dY_\xae]D@G\xdc\x88\xea\xc5oD@G\x1d\xe3\xed\x9bkD@\x81\xce\x9b\x9a\xd9aD@\xf5\xecL\x00\xedZD@\xf3\t\x05\xa9\x00^D@\xf1\x0b\xa5j\xfe^D@\xae\x81\xc2\x1d\x9baD@\xcc\xda\x19 `_D@\xd4\xc2/\xef\xb7`D@b\xb6t\xf8P]D@\x9c\xc0Y,\xaaYD@\x01di\xeb_`D@\xfd\xb2\xe8\xa3ObD@z$e\x9c\xa3_D@2\x07}\xc9\xde[D@\x83C\xba\xbc\xa0LD@\xb3\x82\tgdQD@\xea\x1a\xb6\x82\xb0OD@ \x85#\x12*MD@\xe8\xfa\x9al\xd1JD@8U\x80\\,BD@'
p2987
tp2988
bsg2594
S'scattermapbox'
p2989
sasg2598
VThis is the format of your plot grid:\u000a[ (1,1) mapbox ]\u000a
p2990
stp2991
Rp2992
sa(dp2993
g2
(dp2994
g4
S'Collisions more than 10km from the nearest hospital'
p2995
ssg6
g7
((dp2996
g9
(lp2997
(lp2998
(g12
(g13
g14
(g15
(Vmapbox
p2999
tp3000
(dp3001
g19
g2999
stp3002
tp3003
Rp3004
tp3005
aasg2
(dp3006
g25
I600
sg26
(dp3007
g2
(dp3008
g29
(dp3009
g31
(dp3010
g33
g34
sssg35
(dp3011
g37
(dp3012
g39
g40
sg41
g42
sg43
g44
ssg45
g46
sg47
(dp3013
g49
g40
sg50
g51
sg52
g53
sssg54
(lp3014
g56
ag57
ag58
ag59
ag60
ag61
ag62
ag63
ag64
ag65
asg66
(dp3015
g68
I01
sg69
(dp3016
g71
I15
ssg72
I2
sg73
g40
sg74
g75
sg76
g77
sg78
g79
ssg80
(dp3017
g82
(lp3018
(lp3019
I0
ag85
aa(lp3020
F0.1
ag87
aa(lp3021
F0.2
ag89
aa(lp3022
F0.3
ag91
aa(lp3023
F0.4
ag93
aa(lp3024
F0.5
ag95
aa(lp3025
F0.6
ag97
aa(lp3026
F0.7
ag99
aa(lp3027
F0.8
ag101
aa(lp3028
F0.9
ag103
aa(lp3029
I1
ag105
aasg106
(lp3030
(lp3031
F0.0
ag109
aa(lp3032
F0.1111111111111111
ag111
aa(lp3033
F0.2222222222222222
ag113
aa(lp3034
F0.3333333333333333
ag115
aa(lp3035
F0.4444444444444444
ag117
aa(lp3036
F0.5555555555555556
ag119
aa(lp3037
F0.6666666666666666
ag121
aa(lp3038
F0.7777777777777778
ag123
aa(lp3039
F0.8888888888888888
ag125
aa(lp3040
F1.0
ag127
aasg128
(lp3041
(lp3042
F0.0
ag131
aa(lp3043
F0.1111111111111111
ag133
aa(lp3044
F0.2222222222222222
ag135
aa(lp3045
F0.3333333333333333
ag137
aa(lp3046
F0.4444444444444444
ag139
aa(lp3047
F0.5555555555555556
ag141
aa(lp3048
F0.6666666666666666
ag143
aa(lp3049
F0.7777777777777778
ag145
aa(lp3050
F0.8888888888888888
ag147
aa(lp3051
F1.0
ag149
aassg150
g151
sg152
g153
sg154
(dp3052
g156
I01
sg157
(dp3053
g159
I15
ssg160
I2
sg161
g40
sg162
g163
sg164
g165
sg166
g167
ssg168
(dp3054
g170
(dp3055
g172
g173
sg174
g40
sg175
I01
sg176
I2
sg177
g178
sg179
g180
sg181
g182
ssg183
(dp3056
g185
g186
sg187
g40
sg188
I01
sg189
I2
sg190
g191
sg192
g193
sg194
g195
ssg196
(dp3057
g198
g199
sg200
g40
sg201
I01
sg202
I2
sg203
g204
sg205
g206
sg207
g208
sssg209
(dp3058
g211
I1
sg212
I0
sg213
g214
ssg215
(dp3059
g217
g218
ssg219
(dp3060
g221
g222
sg223
(dp3061
g225
g40
sg226
g227
sg228
g229
ssg230
(dp3062
g232
g40
sg233
g234
sg235
g236
ssg237
(dp3063
g239
g40
sg240
g241
sg242
g243
sssg244
(dp3064
g246
g247
ssg248
(dp3065
g250
F0.05
ssg251
g252
sg253
(dp3066
g255
g256
ssg257
(dp3067
g259
I01
sg260
g261
sg262
I01
sg263
g264
sg265
g266
sg267
g268
ssg269
(dp3068
g271
(dp3069
g273
I0
sg274
g40
ssssg6
(dp3070
g276
(lp3071
(dp3072
g279
(dp3073
g281
I0
sg282
g40
ssg283
g284
sasg285
(lp3074
(dp3075
g288
(dp3076
g290
(dp3077
g292
I0
sg293
g40
sssg294
g295
sasg296
(lp3078
(dp3079
g299
I01
sg300
g301
sasg302
(lp3080
(dp3081
g305
(dp3082
g307
I0
sg308
g40
ssg309
g310
sg311
(lp3083
(lp3084
F0.0
ag314
aa(lp3085
F0.1111111111111111
ag316
aa(lp3086
F0.2222222222222222
ag318
aa(lp3087
F0.3333333333333333
ag320
aa(lp3088
F0.4444444444444444
ag322
aa(lp3089
F0.5555555555555556
ag324
aa(lp3090
F0.6666666666666666
ag326
aa(lp3091
F0.7777777777777778
ag328
aa(lp3092
F0.8888888888888888
ag330
aa(lp3093
F1.0
ag332
aasasg333
(lp3094
(dp3095
g336
(dp3096
g338
(dp3097
g340
g341
ssg342
(dp3098
g344
g345
sssg346
(dp3099
g348
(dp3100
g350
g351
ssg352
(dp3101
g354
g355
sssg356
g357
sasg358
(lp3102
(dp3103
g361
(dp3104
g363
(dp3105
g365
I0
sg366
g40
sssg367
g368
sasg369
(lp3106
(dp3107
g372
(dp3108
g374
I0
sg375
g40
ssg376
g377
sg378
(lp3109
(lp3110
F0.0
ag381
aa(lp3111
F0.1111111111111111
ag383
aa(lp3112
F0.2222222222222222
ag385
aa(lp3113
F0.3333333333333333
ag387
aa(lp3114
F0.4444444444444444
ag389
aa(lp3115
F0.5555555555555556
ag391
aa(lp3116
F0.6666666666666666
ag393
aa(lp3117
F0.7777777777777778
ag395
aa(lp3118
F0.8888888888888888
ag397
aa(lp3119
F1.0
ag399
aasasg400
(lp3120
(dp3121
g403
g404
sg405
(dp3122
g407
g408
sg409
g410
sg411
g412
sg413
g414
sg415
g416
ssg417
(dp3123
g419
g420
sg421
g422
sg423
g424
sg425
g426
sg427
g428
ssasg429
(lp3124
(dp3125
g432
(dp3126
g434
I0
sg435
g40
ssg436
g437
sasg438
(lp3127
(dp3128
g441
(dp3129
g443
I0
sg444
g40
ssg445
g446
sg447
(lp3130
(lp3131
F0.0
ag450
aa(lp3132
F0.1111111111111111
ag452
aa(lp3133
F0.2222222222222222
ag454
aa(lp3134
F0.3333333333333333
ag456
aa(lp3135
F0.4444444444444444
ag458
aa(lp3136
F0.5555555555555556
ag460
aa(lp3137
F0.6666666666666666
ag462
aa(lp3138
F0.7777777777777778
ag464
aa(lp3139
F0.8888888888888888
ag466
aa(lp3140
F1.0
ag468
aasasg469
(lp3141
(dp3142
g472
(dp3143
g474
(dp3144
g476
I0
sg477
g40
sssg478
g479
sasg480
(lp3145
(dp3146
g483
(dp3147
g485
(dp3148
g487
I0
sg488
g40
sssg489
(dp3149
g491
(dp3150
g493
I0
sg494
g40
sssg495
g496
sasg497
(lp3151
(dp3152
g500
(dp3153
g502
(dp3154
g504
I0
sg505
g40
sssg506
g507
sasg508
(lp3155
(dp3156
g511
(dp3157
g513
(dp3158
g515
I0
sg516
g40
sssg517
g518
sasg519
(lp3159
(dp3160
g522
(dp3161
g524
I0
sg525
g40
ssg526
g527
sg528
(lp3162
(lp3163
F0.0
ag531
aa(lp3164
F0.1111111111111111
ag533
aa(lp3165
F0.2222222222222222
ag535
aa(lp3166
F0.3333333333333333
ag537
aa(lp3167
F0.4444444444444444
ag539
aa(lp3168
F0.5555555555555556
ag541
aa(lp3169
F0.6666666666666666
ag543
aa(lp3170
F0.7777777777777778
ag545
aa(lp3171
F0.8888888888888888
ag547
aa(lp3172
F1.0
ag549
aasasg550
(lp3173
(dp3174
g553
(dp3175
g555
I0
sg556
g40
ssg557
g558
sg559
(lp3176
(lp3177
F0.0
ag562
aa(lp3178
F0.1111111111111111
ag564
aa(lp3179
F0.2222222222222222
ag566
aa(lp3180
F0.3333333333333333
ag568
aa(lp3181
F0.4444444444444444
ag570
aa(lp3182
F0.5555555555555556
ag572
aa(lp3183
F0.6666666666666666
ag574
aa(lp3184
F0.7777777777777778
ag576
aa(lp3185
F0.8888888888888888
ag578
aa(lp3186
F1.0
ag580
aasasg581
(lp3187
(dp3188
g584
(dp3189
g586
(dp3190
g588
I0
sg589
g40
sssg590
g591
sasg592
(lp3191
(dp3192
g595
(dp3193
g597
(dp3194
g599
I0
sg600
g40
sssg601
g602
sasg603
(lp3195
(dp3196
g606
(dp3197
g608
(dp3198
g610
I0
sg611
g40
sssg612
g613
sasg614
(lp3199
(dp3200
g617
(dp3201
g619
(dp3202
g621
g622
sg623
F0.5
sssg624
g625
sg626
(dp3203
g628
g629
ssg630
(dp3204
g632
g633
ssasg634
(lp3205
(dp3206
g637
(dp3207
g639
I0
sg640
g40
ssg641
g642
sasg643
(lp3208
(dp3209
g646
(dp3210
g648
(dp3211
g650
I0
sg651
g40
sssg652
g653
sasg654
(lp3212
(dp3213
g657
(dp3214
g659
(dp3215
g661
g662
sg663
F0.5
sssg664
g665
sasg666
(lp3216
(dp3217
g669
(dp3218
g671
I0
sg672
g40
ssg673
g674
sg675
(lp3219
(lp3220
F0.0
ag678
aa(lp3221
F0.1111111111111111
ag680
aa(lp3222
F0.2222222222222222
ag682
aa(lp3223
F0.3333333333333333
ag684
aa(lp3224
F0.4444444444444444
ag686
aa(lp3225
F0.5555555555555556
ag688
aa(lp3226
F0.6666666666666666
ag690
aa(lp3227
F0.7777777777777778
ag692
aa(lp3228
F0.8888888888888888
ag694
aa(lp3229
F1.0
ag696
aasasg697
(lp3230
(dp3231
g700
(dp3232
g702
(dp3233
g704
I0
sg705
g40
sssg706
g707
sasssg708
(dp3234
g710
(dp3235
g712
(lp3236
F0.0
aF1.0
asg714
(lp3237
F0.0
aF1.0
assS'zoom'
p3238
F8.9
sS'style'
p3239
g718
sg719
(dp3240
S'lat'
p3241
F40.71
sS'lon'
p3242
I-74
sssg723
(dp3243
g725
I60
ssg726
(dp3244
S'tracegroupgap'
p3245
I0
ssS'coloraxis'
p3246
(dp3247
S'colorscale'
p3248
(lp3249
(lp3250
F0.0
ag109
aa(lp3251
F0.1111111111111111
ag111
aa(lp3252
F0.2222222222222222
ag113
aa(lp3253
F0.3333333333333333
ag115
aa(lp3254
F0.4444444444444444
ag117
aa(lp3255
F0.5555555555555556
ag119
aa(lp3256
F0.6666666666666666
ag121
aa(lp3257
F0.7777777777777778
ag123
aa(lp3258
F0.8888888888888888
ag125
aa(lp3259
F1.0
ag127
aasssg6
(lp3260
(dp3261
g745
g2999
sg746
S'latitude=%{lat}<br>longitude=%{lon}<extra></extra>'
p3262
sg748
g749
sg750
g751
(g752
(I0
tp3263
g754
tp3264
Rp3265
(I1
(I138
tp3266
g761
I00
(lp3267
g765
ag771
ag773
ag796
ag809
ag815
ag817
ag823
ag824
ag826
ag827
ag833
ag836
ag837
ag842
ag844
ag847
ag849
ag858
ag862
ag870
ag876
ag884
ag895
ag906
ag914
ag925
ag927
ag932
ag936
ag939
ag941
ag949
ag950
ag953
ag960
ag961
ag966
ag970
ag972
ag990
ag993
ag999
ag1007
ag1009
ag1020
ag1032
ag1040
ag1046
ag1049
ag1052
ag1053
ag1064
ag1065
ag1066
ag1073
ag1088
ag1091
ag1094
ag1104
ag1122
ag1124
ag1127
ag1131
ag1132
ag1137
ag1140
ag1159
ag1163
ag1190
ag1196
ag1225
ag1229
ag1234
ag1236
ag1240
ag1280
ag1283
ag1303
ag1304
ag1314
ag1318
ag1319
ag1322
ag1336
ag1339
ag1343
ag1357
ag1362
ag1370
ag1376
ag1377
ag1388
ag1396
ag1402
ag1407
ag1409
ag1414
ag1430
ag1431
ag1435
ag1445
ag1451
ag1459
ag1470
ag1471
ag1473
ag1474
ag1484
ag1488
ag1490
ag1493
ag1494
ag1508
ag1509
ag1513
ag1514
ag1537
ag1539
ag1540
ag1543
ag1549
ag1570
ag1573
ag1580
ag1585
ag1589
ag1591
ag1598
ag1609
ag1612
ag1619
ag1632
ag1663
ag1665
ag1666
ag1670
ag1673
atp3268
bsg1676
I8
sg1677
g751
(g752
(I0
tp3269
g754
tp3270
Rp3271
(I1
(I138
tp3272
g761
I00
(lp3273
g1683
ag1689
ag1691
ag1714
ag1727
ag1733
ag1735
ag1741
ag1742
ag1744
ag1745
ag1751
ag1754
ag1755
ag1760
ag1762
ag1765
ag1767
ag1776
ag1780
ag1788
ag1794
ag1802
ag1813
ag1824
ag1832
ag1843
ag1845
ag1850
ag1854
ag1857
ag1859
ag1867
ag1868
ag1871
ag1878
ag1879
ag1884
ag1888
ag1890
ag1908
ag1911
ag1917
ag1925
ag1927
ag1938
ag1950
ag1958
ag1964
ag1967
ag1970
ag1971
ag1982
ag1983
ag1984
ag1991
ag2006
ag2009
ag2012
ag2022
ag2040
ag2042
ag2045
ag2049
ag2050
ag2055
ag2058
ag2077
ag2081
ag2108
ag2114
ag2143
ag2147
ag2152
ag2154
ag2158
ag2198
ag2201
ag2221
ag2222
ag2232
ag2236
ag2237
ag2240
ag2254
ag2257
ag2261
ag2275
ag2280
ag2288
ag2294
ag2295
ag2306
ag2314
ag2320
ag2325
ag2327
ag2332
ag2348
ag2349
ag2353
ag2363
ag2369
ag2377
ag2388
ag2389
ag2391
ag2392
ag2402
ag2406
ag2408
ag2411
ag2412
ag2426
ag2427
ag2431
ag2432
ag2455
ag2457
ag2458
ag2461
ag2467
ag2488
ag2491
ag2498
ag2503
ag2507
ag2509
ag2516
ag2527
ag2530
ag2537
ag2550
ag2581
ag2583
ag2584
ag2588
ag2591
atp3274
bsg2594
g2595
sg2596
g2597
sa(dp3275
g745
Vmapbox
p3276
sg746
S'capacity=%{marker.size}<br>name=%{text}<br>latitude=%{lat}<br>longitude=%{lon}<extra></extra>'
p3277
sg2874
I00
sg2875
g749
sg748
g749
sg2876
g751
(g752
(I0
tp3278
g754
tp3279
Rp3280
(I1
(I62
tp3281
g761
I00
(lp3282
g2882
ag2883
ag2884
ag2885
ag2886
ag2887
ag2888
ag2889
ag2890
ag2891
ag2892
ag2893
ag2894
ag2895
ag2896
ag2897
ag2898
ag2899
ag2900
ag2901
ag2902
ag2903
ag2904
ag2905
ag2906
ag2907
ag2908
ag2909
ag2910
ag2911
ag2912
ag2913
ag2914
ag2915
ag2916
ag2917
ag2918
ag2919
ag2920
ag2921
ag2922
ag2923
ag2924
ag2925
ag2926
ag2927
ag2928
ag2929
ag2930
ag2931
ag2932
ag2933
ag2934
ag2935
ag2936
ag2937
ag2938
ag2939
ag2940
ag2941
ag2942
ag2943
atp3283
bsg750
g751
(g752
(I0
tp3284
g754
tp3285
Rp3286
(I1
(I62
tp3287
g2951
I00
S'\\d\x83\xfeMzR\xc0;w`\xaa\xcdyR\xc0\xaa\xb8\x1ct\xfeuR\xc0\x00\x06\xea\x94\x19vR\xc0\xc7O\xac\xa7*{R\xc0\xd2\x05\xb6\xa7&vR\xc0\x17\xa1\xa1\x0eQxR\xc0\xca\x94\xe6\xe5LvR\xc0{\x7ftN\x1ewR\xc0^|\x06\xbbcxR\xc0W<\xf8\xe6\xfbxR\xc08\xa0\x9ekdzR\xc0s\n\x8en\x96~R\xc0\x89\x85\xcfg\xc0}R\xc0\x08\x04\xfb\x83\x01|R\xc0\x1bq\xc9\xc4g|R\xc0\xaf{\x00r\xc3{R\xc0c)\x17\xb1[\x81R\xc0\xefE}\xce\xea\x7fR\xc0\xd3\xca#\xc6Y|R\xc0\xd6\x83K0\xb4|R\xc0\x84\xc7\xb8)\xaa~R\xc0\xd0\xc2\x81\xef\xd5\x7fR\xc0\x10\xa6W\n\xd3\x7fR\xc0\xd8\xd9.\xfe}|R\xc0A\x88aGV|R\xc0\xb4ovV\xb9zR\xc0$-"\x04l~R\xc0\xad\x8bfq\xf7|R\xc0\xf9fo"%|R\xc0\xf3\xa8sP;|R\xc0\x93"\x19|\xf9|R\xc0\xc0\xd8\xb2N\x0e\x80R\xc0\xe26|\xa8~}R\xc0\t`\x885<}R\xc0h\x95~:z|R\xc0\xc2\xf3\xbd\xbc\xde~R\xc0\x8d\xec\xf9N\x02}R\xc0yA\xda*)\x7fR\xc0\x81<@\xe2\x88}R\xc0\x17h^\xde\x03\x7fR\xc0Y\x07_\xbfmzR\xc0\x0e\xa2\x9a\xc4C|R\xc0 \xffe\xad\x10}R\xc0\xec\x1e\r\x16R\x80R\xc0\xf0x\x02~\xe9~R\xc0\xcfO\\\\W~R\xc0\x15U\xfb\xc7*}R\xc0\xab\x94\xebX\xaexR\xc0o8\xe3\xa8GtR\xc0i-c\xc2\x7fvR\xc0\x05zW\xbc>tR\xc0\x04.anemR\xc0\xb7\xdf\x86\xa50{R\xc0\x99\xac\xaa\x81\xcftR\xc0\x8f|L@\x90sR\xc0\x16\xa2\xb9#9pR\xc0\xe81\x18\x80\xc1\x86R\xc06\x98?\xe1\xd6\x84R\xc06q\x9e\x9e\xe2\x85R\xc0j\x84T\xccx\x85R\xc0\xd6\x02\x15\x9c\x8d\x8cR\xc0'
p3288
tp3289
bsg2956
(dp3290
g2964
g56
sg2958
F0.9
sg2971
g2972
sg2959
g2960
(g2951
S'\xecQ\xb8\x1e\x85k\x07@'
p3291
tp3292
Rp3293
sg2974
g751
(g752
(I0
tp3294
g754
tp3295
Rp3296
(I1
(I62
tp3297
g2951
I00
S'\x00\x00\x00\x00\x00\xf0y@\x00\x00\x00\x00\x00\x80d@\x00\x00\x00\x00\x00 l@\x00\x00\x00\x00\x00\x90|@\x00\x00\x00\x00\x00\xa0v@\x00\x00\x00\x00\x00\x80z@\x00\x00\x00\x00\x00X\x88@\x00\x00\x00\x00\x00Xw@\x00\x00\x00\x00\x00Ps@\x00\x00\x00\x00\x00\xa0j@\x00\x00\x00\x00\x00`z@\x00\x00\x00\x00\x00\x90\x80@\x00\x00\x00\x00\x00\x00}@\x00\x00\x00\x00\x000w@\x00\x00\x00\x00\x00\xf0q@\x00\x00\x00\x00\x00\xf8\x83@\x00\x00\x00\x00\x00\xe0s@\x00\x00\x00\x00\x00 |@\x00\x00\x00\x00\x008\x86@\x00\x00\x00\x00\x00\x80j@\x00\x00\x00\x00\x00\xc0`@\x00\x00\x00\x00\x00x\x82@\x00\x00\x00\x00\x00Xw@\x00\x00\x00\x00\x00\xa0\x7f@\x00\x00\x00\x00\x00\x80w@\x00\x00\x00\x00\x00@x@\x00\x00\x00\x00\x00@t@\x00\x00\x00\x00\x00\x80\x8c@\x00\x00\x00\x00\x00@j@\x00\x00\x00\x00\x00\xa0q@\x00\x00\x00\x00\x00 i@\x00\x00\x00\x00\x00\xa0i@\x00\x00\x00\x00\x00\x00\x00@\x00\x00\x00\x00\x00\xc0\x83@\x00\x00\x00\x00\x00\x10\x80@\x00\x00\x00\x00\x00 u@\x00\x00\x00\x00\x00\xc0\x8a@\x00\x00\x00\x00\x00L\x92@\x00\x00\x00\x00\x00\x10\x80@\x00\x00\x00\x00\x00\xe0}@\x00\x00\x00\x00\x00@Q@\x00\x00\x00\x00\x00 i@\x00\x00\x00\x00\x00\x18\x8f@\x00\x00\x00\x00\x00\xf0\x8a@\x00\x00\x00\x00\x00\x80f@\x00\x00\x00\x00\x00 l@\x00\x00\x00\x00\x00`\x8a@\x00\x00\x00\x00\x00\x00D@\x00\x00\x00\x00\x00\x08\x81@\x00\x00\x00\x00\x00\xb0r@\x00\x00\x00\x00\x00\x80s@\x00\x00\x00\x00\x00\xf0z@\x00\x00\x00\x00\x00\x04\x90@\x00\x00\x00\x00\x00`m@\x00\x00\x00\x00\x00\xb8\x80@\x00\x00\x00\x00\x00\xe0n@\x00\x00\x00\x00\x00\x10p@\x00\x00\x00\x00\x00\x00|@\x00\x00\x00\x00\x00\x009@\x00\x00\x00\x00\x00\x80I@\x00\x00\x00\x00\x00\xc0\x7f@\x00\x00\x00\x00\x00\xc0i@'
p3298
tp3299
bssg2981
S'markers+text'
p3300
sg1677
g751
(g752
(I0
tp3301
g754
tp3302
Rp3303
(I1
(I62
tp3304
g2951
I00
S'\xe7\x89\xaey\xf7kD@|\x0f\xfdAljD@\xd9\xf4\xe86\x8dlD@\x94r\x12#\x87mD@\x99\x91*\x84\x8bhD@B\x07f\xdf\xc7lD@%EH\xf9\xbepD@\xf1DZL\x9ckD@ >\xe2\xc9^rD@o\x94)\xc5\xb3pD@\xe9\xf4>{;mD@A\x92E^\xd4SD@\xe0Y\x04\xeadXD@\xd0.yr\xf6JD@\x82n\x17\xcd\xd6VD@\xfd\xf4\x0eN\x0eTD@8L\x8b\xedlTD@/\xb0\xb2"\xc6RD@\xaa\x1f\xfb\\\xdbQD@G\xa7\x9c\x952OD@e\x1d\x92\xbb\x94ND@\xd1\x9f\x17g{UD@\x07eK\x01RXD@\xb8J\' `XD@\xbe\xcb\x0e\xfb\xd9SD@\xcb\x96\xf0\xd2\x88YD@\xe0\xf9VJ#ZD@$\x93\x81B\x8f^D@\x13\x82\x14F\xf9`D@=\t.35hD@\x1eU\x14\x9c\xc8fD@*5\xae\x14\xefaD@\xaf\xdfSpm^D@\xa0T\xa6\x12\x07cD@d\xb7\x82\x07\xd7aD@\xa4\xea\x0b\xa6|dD@\xbe\xac\x98\xab\xdd]D@4\t\xc9\x9c\x1aeD@\xf2\x92\xbbd\x85bD@\xa8\xa5*\x08!gD@P\x1dY_\xae]D@G\xdc\x88\xea\xc5oD@G\x1d\xe3\xed\x9bkD@\x81\xce\x9b\x9a\xd9aD@\xf5\xecL\x00\xedZD@\xf3\t\x05\xa9\x00^D@\xf1\x0b\xa5j\xfe^D@\xae\x81\xc2\x1d\x9baD@\xcc\xda\x19 `_D@\xd4\xc2/\xef\xb7`D@b\xb6t\xf8P]D@\x9c\xc0Y,\xaaYD@\x01di\xeb_`D@\xfd\xb2\xe8\xa3ObD@z$e\x9c\xa3_D@2\x07}\xc9\xde[D@\x83C\xba\xbc\xa0LD@\xb3\x82\tgdQD@\xea\x1a\xb6\x82\xb0OD@ \x85#\x12*MD@\xe8\xfa\x9al\xd1JD@8U\x80\\,BD@'
p3305
tp3306
bsg2594
g2989
sasg2598
VThis is the format of your plot grid:\u000a[ (1,1) mapbox ]\u000a
p3307
stp3308
Rp3309
sa.